GAS LISTING /var/folders/b3/c8k8_7z16sxb5qhkpvrmv5jh0000gn/T//ccVKyh5f.s 			page 1


   1               		.file	"lcd.c"
   2               	__SP_H__ = 0x3e
   3               	__SP_L__ = 0x3d
   4               	__SREG__ = 0x3f
   5               	__tmp_reg__ = 0
   6               	__zero_reg__ = 1
   7               		.text
   8               	.Ltext0:
   9               		.cfi_sections	.debug_frame
  10               	.global	init_lcd
  11               		.type	init_lcd, @function
  12               	init_lcd:
  13               	.LFB1:
  14               		.file 1 "lcd.c"
   1:lcd.c         **** /*  Author: Steve Gunn
   2:lcd.c         ****  * Licence: This work is licensed under the Creative Commons Attribution License.
   3:lcd.c         ****  *           View this license at http://creativecommons.org/about/licenses/
   4:lcd.c         ****  */
   5:lcd.c         ****  
   6:lcd.c         **** #include "ili934x.h"
   7:lcd.c         **** #include "font.h"
   8:lcd.c         **** #include "lcd.h"
   9:lcd.c         **** 
  10:lcd.c         **** lcd display = {LCDWIDTH, LCDHEIGHT, North, 0, 0, WHITE, BLACK};
  11:lcd.c         **** 
  12:lcd.c         **** void init_lcd()
  13:lcd.c         **** {
  15               		.loc 1 13 1 view -0
  16               		.cfi_startproc
  17               	/* prologue: function */
  18               	/* frame size = 0 */
  19               	/* stack size = 0 */
  20               	.L__stack_usage = 0
  14:lcd.c         **** 	/* Disable JTAG in software, so that it does not interfere with Port C  */
  15:lcd.c         **** 	/* It will be re-enabled after a power cycle if the JTAGEN fuse is set. */
  16:lcd.c         **** 	MCUCR |= (1<<JTD);
  21               		.loc 1 16 2 view .LVU1
  22               		.loc 1 16 8 is_stmt 0 view .LVU2
  23 0000 85B7      		in r24,0x35
  24 0002 8068      		ori r24,lo8(-128)
  25 0004 85BF      		out 0x35,r24
  17:lcd.c         **** 	MCUCR |= (1<<JTD);
  26               		.loc 1 17 2 is_stmt 1 view .LVU3
  27               		.loc 1 17 8 is_stmt 0 view .LVU4
  28 0006 85B7      		in r24,0x35
  29 0008 8068      		ori r24,lo8(-128)
  30 000a 85BF      		out 0x35,r24
  18:lcd.c         **** 	
  19:lcd.c         **** 	/* Configure ports */
  20:lcd.c         **** 
  21:lcd.c         **** 	CTRL_DDR = 0x7F;
  31               		.loc 1 21 2 is_stmt 1 view .LVU5
  32               		.loc 1 21 11 is_stmt 0 view .LVU6
  33 000c 8FE7      		ldi r24,lo8(127)
  34 000e 84B9      		out 0x4,r24
  22:lcd.c         **** 	DATA_DDR = 0xFF;
  35               		.loc 1 22 2 is_stmt 1 view .LVU7
GAS LISTING /var/folders/b3/c8k8_7z16sxb5qhkpvrmv5jh0000gn/T//ccVKyh5f.s 			page 2


  36               		.loc 1 22 11 is_stmt 0 view .LVU8
  37 0010 8FEF      		ldi r24,lo8(-1)
  38 0012 8AB9      		out 0xa,r24
  23:lcd.c         **** 	
  24:lcd.c         **** 	init_display_controller();
  39               		.loc 1 24 2 is_stmt 1 view .LVU9
  40 0014 0C94 0000 		jmp init_display_controller
  41               	.LVL0:
  42               		.cfi_endproc
  43               	.LFE1:
  44               		.size	init_lcd, .-init_lcd
  45               	.global	set_orientation
  46               		.type	set_orientation, @function
  47               	set_orientation:
  48               	.LVL1:
  49               	.LFB2:
  25:lcd.c         **** }
  26:lcd.c         **** 
  27:lcd.c         **** void set_orientation(orientation o)
  28:lcd.c         **** {
  50               		.loc 1 28 1 view -0
  51               		.cfi_startproc
  52               	/* prologue: function */
  53               	/* frame size = 0 */
  54               	/* stack size = 0 */
  55               	.L__stack_usage = 0
  56               		.loc 1 28 1 is_stmt 0 view .LVU11
  57 0018 9C01      		movw r18,r24
  29:lcd.c         **** 	display.orient = o;
  58               		.loc 1 29 2 is_stmt 1 view .LVU12
  59               		.loc 1 29 17 is_stmt 0 view .LVU13
  60 001a 9093 0000 		sts display+4+1,r25
  61 001e 8093 0000 		sts display+4,r24
  30:lcd.c         **** 	write_cmd(MEMORY_ACCESS_CONTROL);
  62               		.loc 1 30 2 is_stmt 1 view .LVU14
  63 0022 2C98      		cbi 0x5,4
  64               		.loc 1 30 2 view .LVU15
  65 0024 86E3      		ldi r24,lo8(54)
  66               	.LVL2:
  67               		.loc 1 30 2 is_stmt 0 view .LVU16
  68 0026 8BB9      		out 0xb,r24
  69               		.loc 1 30 2 is_stmt 1 view .LVU17
  70 0028 2B98      		cbi 0x5,3
  71               		.loc 1 30 2 view .LVU18
  72 002a 2B9A      		sbi 0x5,3
  73               		.loc 1 30 2 view .LVU19
  74 002c 2C9A      		sbi 0x5,4
  75               		.loc 1 30 34 view .LVU20
  31:lcd.c         **** 	if (o==North) { 
  76               		.loc 1 31 2 view .LVU21
  77               		.loc 1 31 5 is_stmt 0 view .LVU22
  78 002e 2115      		cp r18,__zero_reg__
  79 0030 3105      		cpc r19,__zero_reg__
  80 0032 01F0      		breq .+2
  81 0034 00C0      		rjmp .L3
  32:lcd.c         **** 		display.width = LCDWIDTH;
  82               		.loc 1 32 3 is_stmt 1 view .LVU23
GAS LISTING /var/folders/b3/c8k8_7z16sxb5qhkpvrmv5jh0000gn/T//ccVKyh5f.s 			page 3


  83               		.loc 1 32 17 is_stmt 0 view .LVU24
  84 0036 80EF      		ldi r24,lo8(-16)
  85 0038 90E0      		ldi r25,0
  86 003a 9093 0000 		sts display+1,r25
  87 003e 8093 0000 		sts display,r24
  33:lcd.c         **** 		display.height = LCDHEIGHT;
  88               		.loc 1 33 3 is_stmt 1 view .LVU25
  89               		.loc 1 33 18 is_stmt 0 view .LVU26
  90 0042 80E4      		ldi r24,lo8(64)
  91 0044 91E0      		ldi r25,lo8(1)
  92 0046 9093 0000 		sts display+2+1,r25
  93 004a 8093 0000 		sts display+2,r24
  34:lcd.c         **** 		write_data(0x48);
  94               		.loc 1 34 3 is_stmt 1 view .LVU27
  95 004e 88E4      		ldi r24,lo8(72)
  96               	.L7:
  35:lcd.c         **** 	}
  36:lcd.c         **** 	else if (o==West) {
  37:lcd.c         **** 		display.width = LCDHEIGHT;
  38:lcd.c         **** 		display.height = LCDWIDTH;
  39:lcd.c         **** 		write_data(0xE8);
  40:lcd.c         **** 	}
  41:lcd.c         **** 	else if (o==South) {
  42:lcd.c         **** 		display.width = LCDWIDTH;
  43:lcd.c         **** 		display.height = LCDHEIGHT;
  44:lcd.c         **** 		write_data(0x88);
  45:lcd.c         **** 	}
  46:lcd.c         **** 	else if (o==East) {
  47:lcd.c         **** 		display.width = LCDHEIGHT;
  48:lcd.c         **** 		display.height = LCDWIDTH;
  49:lcd.c         **** 		write_data(0x28);
  97               		.loc 1 49 3 is_stmt 0 view .LVU28
  98 0050 8BB9      		out 0xb,r24
  99               		.loc 1 49 3 is_stmt 1 view .LVU29
 100 0052 2B98      		cbi 0x5,3
 101               		.loc 1 49 3 view .LVU30
 102 0054 2B9A      		sbi 0x5,3
 103               	.L4:
 104               		.loc 1 49 19 discriminator 1 view .LVU31
  50:lcd.c         **** 	}
  51:lcd.c         **** 	write_cmd(COLUMN_ADDRESS_SET);
 105               		.loc 1 51 2 discriminator 1 view .LVU32
 106 0056 2C98      		cbi 0x5,4
 107               		.loc 1 51 2 discriminator 1 view .LVU33
 108 0058 8AE2      		ldi r24,lo8(42)
 109 005a 8BB9      		out 0xb,r24
 110               		.loc 1 51 2 discriminator 1 view .LVU34
 111 005c 2B98      		cbi 0x5,3
 112               		.loc 1 51 2 discriminator 1 view .LVU35
 113 005e 2B9A      		sbi 0x5,3
 114               		.loc 1 51 2 discriminator 1 view .LVU36
 115 0060 2C9A      		sbi 0x5,4
 116               		.loc 1 51 31 discriminator 1 view .LVU37
  52:lcd.c         **** 	write_data16(0);
 117               		.loc 1 52 2 discriminator 1 view .LVU38
 118 0062 1BB8      		out 0xb,__zero_reg__
 119               		.loc 1 52 2 discriminator 1 view .LVU39
GAS LISTING /var/folders/b3/c8k8_7z16sxb5qhkpvrmv5jh0000gn/T//ccVKyh5f.s 			page 4


 120 0064 2B98      		cbi 0x5,3
 121               		.loc 1 52 2 discriminator 1 view .LVU40
 122 0066 2B9A      		sbi 0x5,3
 123               		.loc 1 52 2 discriminator 1 view .LVU41
 124               		.loc 1 52 2 discriminator 1 view .LVU42
 125 0068 1BB8      		out 0xb,__zero_reg__
 126               		.loc 1 52 2 discriminator 1 view .LVU43
 127 006a 2B98      		cbi 0x5,3
 128               		.loc 1 52 2 discriminator 1 view .LVU44
 129 006c 2B9A      		sbi 0x5,3
 130               		.loc 1 52 2 discriminator 1 view .LVU45
 131               		.loc 1 52 17 discriminator 1 view .LVU46
  53:lcd.c         **** 	write_data16(display.width-1);
 132               		.loc 1 53 2 discriminator 1 view .LVU47
 133 006e 8091 0000 		lds r24,display
 134 0072 9091 0000 		lds r25,display+1
 135 0076 0197      		sbiw r24,1
 136 0078 9BB9      		out 0xb,r25
 137               		.loc 1 53 2 discriminator 1 view .LVU48
 138 007a 2B98      		cbi 0x5,3
 139               		.loc 1 53 2 discriminator 1 view .LVU49
 140 007c 2B9A      		sbi 0x5,3
 141               		.loc 1 53 2 discriminator 1 view .LVU50
 142               		.loc 1 53 2 discriminator 1 view .LVU51
 143 007e 8091 0000 		lds r24,display
 144 0082 8150      		subi r24,lo8(-(-1))
 145 0084 8BB9      		out 0xb,r24
 146               		.loc 1 53 2 discriminator 1 view .LVU52
 147 0086 2B98      		cbi 0x5,3
 148               		.loc 1 53 2 discriminator 1 view .LVU53
 149 0088 2B9A      		sbi 0x5,3
 150               		.loc 1 53 2 discriminator 1 view .LVU54
 151               		.loc 1 53 31 discriminator 1 view .LVU55
  54:lcd.c         **** 	write_cmd(PAGE_ADDRESS_SET);
 152               		.loc 1 54 2 discriminator 1 view .LVU56
 153 008a 2C98      		cbi 0x5,4
 154               		.loc 1 54 2 discriminator 1 view .LVU57
 155 008c 8BE2      		ldi r24,lo8(43)
 156 008e 8BB9      		out 0xb,r24
 157               		.loc 1 54 2 discriminator 1 view .LVU58
 158 0090 2B98      		cbi 0x5,3
 159               		.loc 1 54 2 discriminator 1 view .LVU59
 160 0092 2B9A      		sbi 0x5,3
 161               		.loc 1 54 2 discriminator 1 view .LVU60
 162 0094 2C9A      		sbi 0x5,4
 163               		.loc 1 54 29 discriminator 1 view .LVU61
  55:lcd.c         **** 	write_data16(0);
 164               		.loc 1 55 2 discriminator 1 view .LVU62
 165 0096 1BB8      		out 0xb,__zero_reg__
 166               		.loc 1 55 2 discriminator 1 view .LVU63
 167 0098 2B98      		cbi 0x5,3
 168               		.loc 1 55 2 discriminator 1 view .LVU64
 169 009a 2B9A      		sbi 0x5,3
 170               		.loc 1 55 2 discriminator 1 view .LVU65
 171               		.loc 1 55 2 discriminator 1 view .LVU66
 172 009c 1BB8      		out 0xb,__zero_reg__
 173               		.loc 1 55 2 discriminator 1 view .LVU67
GAS LISTING /var/folders/b3/c8k8_7z16sxb5qhkpvrmv5jh0000gn/T//ccVKyh5f.s 			page 5


 174 009e 2B98      		cbi 0x5,3
 175               		.loc 1 55 2 discriminator 1 view .LVU68
 176 00a0 2B9A      		sbi 0x5,3
 177               		.loc 1 55 2 discriminator 1 view .LVU69
 178               		.loc 1 55 17 discriminator 1 view .LVU70
  56:lcd.c         **** 	write_data16(display.height-1);
 179               		.loc 1 56 2 discriminator 1 view .LVU71
 180 00a2 8091 0000 		lds r24,display+2
 181 00a6 9091 0000 		lds r25,display+2+1
 182 00aa 0197      		sbiw r24,1
 183 00ac 9BB9      		out 0xb,r25
 184               		.loc 1 56 2 discriminator 1 view .LVU72
 185 00ae 2B98      		cbi 0x5,3
 186               		.loc 1 56 2 discriminator 1 view .LVU73
 187 00b0 2B9A      		sbi 0x5,3
 188               		.loc 1 56 2 discriminator 1 view .LVU74
 189               		.loc 1 56 2 discriminator 1 view .LVU75
 190 00b2 8091 0000 		lds r24,display+2
 191 00b6 8150      		subi r24,lo8(-(-1))
 192 00b8 8BB9      		out 0xb,r24
 193               		.loc 1 56 2 discriminator 1 view .LVU76
 194 00ba 2B98      		cbi 0x5,3
 195               		.loc 1 56 2 discriminator 1 view .LVU77
 196 00bc 2B9A      		sbi 0x5,3
 197               		.loc 1 56 2 discriminator 1 view .LVU78
 198               		.loc 1 56 32 discriminator 1 view .LVU79
 199               	/* epilogue start */
  57:lcd.c         **** }
 200               		.loc 1 57 1 is_stmt 0 discriminator 1 view .LVU80
 201 00be 0895      		ret
 202               	.L3:
  36:lcd.c         **** 		display.width = LCDHEIGHT;
 203               		.loc 1 36 7 is_stmt 1 view .LVU81
  36:lcd.c         **** 		display.width = LCDHEIGHT;
 204               		.loc 1 36 10 is_stmt 0 view .LVU82
 205 00c0 2130      		cpi r18,1
 206 00c2 3105      		cpc r19,__zero_reg__
 207 00c4 01F4      		brne .L5
  37:lcd.c         **** 		display.height = LCDWIDTH;
 208               		.loc 1 37 3 is_stmt 1 view .LVU83
  37:lcd.c         **** 		display.height = LCDWIDTH;
 209               		.loc 1 37 17 is_stmt 0 view .LVU84
 210 00c6 80E4      		ldi r24,lo8(64)
 211 00c8 91E0      		ldi r25,lo8(1)
 212 00ca 9093 0000 		sts display+1,r25
 213 00ce 8093 0000 		sts display,r24
  38:lcd.c         **** 		write_data(0xE8);
 214               		.loc 1 38 3 is_stmt 1 view .LVU85
  38:lcd.c         **** 		write_data(0xE8);
 215               		.loc 1 38 18 is_stmt 0 view .LVU86
 216 00d2 80EF      		ldi r24,lo8(-16)
 217 00d4 90E0      		ldi r25,0
 218 00d6 9093 0000 		sts display+2+1,r25
 219 00da 8093 0000 		sts display+2,r24
  39:lcd.c         **** 	}
 220               		.loc 1 39 3 is_stmt 1 view .LVU87
 221 00de 88EE      		ldi r24,lo8(-24)
GAS LISTING /var/folders/b3/c8k8_7z16sxb5qhkpvrmv5jh0000gn/T//ccVKyh5f.s 			page 6


 222 00e0 00C0      		rjmp .L7
 223               	.L5:
  41:lcd.c         **** 		display.width = LCDWIDTH;
 224               		.loc 1 41 7 view .LVU88
  41:lcd.c         **** 		display.width = LCDWIDTH;
 225               		.loc 1 41 10 is_stmt 0 view .LVU89
 226 00e2 2230      		cpi r18,2
 227 00e4 3105      		cpc r19,__zero_reg__
 228 00e6 01F4      		brne .L6
  42:lcd.c         **** 		display.height = LCDHEIGHT;
 229               		.loc 1 42 3 is_stmt 1 view .LVU90
  42:lcd.c         **** 		display.height = LCDHEIGHT;
 230               		.loc 1 42 17 is_stmt 0 view .LVU91
 231 00e8 80EF      		ldi r24,lo8(-16)
 232 00ea 90E0      		ldi r25,0
 233 00ec 9093 0000 		sts display+1,r25
 234 00f0 8093 0000 		sts display,r24
  43:lcd.c         **** 		write_data(0x88);
 235               		.loc 1 43 3 is_stmt 1 view .LVU92
  43:lcd.c         **** 		write_data(0x88);
 236               		.loc 1 43 18 is_stmt 0 view .LVU93
 237 00f4 80E4      		ldi r24,lo8(64)
 238 00f6 91E0      		ldi r25,lo8(1)
 239 00f8 9093 0000 		sts display+2+1,r25
 240 00fc 8093 0000 		sts display+2,r24
  44:lcd.c         **** 	}
 241               		.loc 1 44 3 is_stmt 1 view .LVU94
 242 0100 88E8      		ldi r24,lo8(-120)
 243 0102 00C0      		rjmp .L7
 244               	.L6:
  46:lcd.c         **** 		display.width = LCDHEIGHT;
 245               		.loc 1 46 7 view .LVU95
  46:lcd.c         **** 		display.width = LCDHEIGHT;
 246               		.loc 1 46 10 is_stmt 0 view .LVU96
 247 0104 2330      		cpi r18,3
 248 0106 3105      		cpc r19,__zero_reg__
 249 0108 01F0      		breq .+2
 250 010a 00C0      		rjmp .L4
  47:lcd.c         **** 		display.height = LCDWIDTH;
 251               		.loc 1 47 3 is_stmt 1 view .LVU97
  47:lcd.c         **** 		display.height = LCDWIDTH;
 252               		.loc 1 47 17 is_stmt 0 view .LVU98
 253 010c 80E4      		ldi r24,lo8(64)
 254 010e 91E0      		ldi r25,lo8(1)
 255 0110 9093 0000 		sts display+1,r25
 256 0114 8093 0000 		sts display,r24
  48:lcd.c         **** 		write_data(0x28);
 257               		.loc 1 48 3 is_stmt 1 view .LVU99
  48:lcd.c         **** 		write_data(0x28);
 258               		.loc 1 48 18 is_stmt 0 view .LVU100
 259 0118 80EF      		ldi r24,lo8(-16)
 260 011a 90E0      		ldi r25,0
 261 011c 9093 0000 		sts display+2+1,r25
 262 0120 8093 0000 		sts display+2,r24
  49:lcd.c         **** 	}
 263               		.loc 1 49 3 is_stmt 1 view .LVU101
 264 0124 88E2      		ldi r24,lo8(40)
GAS LISTING /var/folders/b3/c8k8_7z16sxb5qhkpvrmv5jh0000gn/T//ccVKyh5f.s 			page 7


 265 0126 00C0      		rjmp .L7
 266               		.cfi_endproc
 267               	.LFE2:
 268               		.size	set_orientation, .-set_orientation
 269               	.global	fill_rectangle
 270               		.type	fill_rectangle, @function
 271               	fill_rectangle:
 272               	.LVL3:
 273               	.LFB3:
  58:lcd.c         **** 
  59:lcd.c         **** void fill_rectangle(rectangle r, uint16_t col)
  60:lcd.c         **** {
 274               		.loc 1 60 1 view -0
 275               		.cfi_startproc
 276               		.loc 1 60 1 is_stmt 0 view .LVU103
 277 0128 0F93      		push r16
 278               		.cfi_def_cfa_offset 3
 279               		.cfi_offset 16, -2
 280 012a 1F93      		push r17
 281               		.cfi_def_cfa_offset 4
 282               		.cfi_offset 17, -3
 283 012c CF93      		push r28
 284               		.cfi_def_cfa_offset 5
 285               		.cfi_offset 28, -4
 286 012e DF93      		push r29
 287               		.cfi_def_cfa_offset 6
 288               		.cfi_offset 29, -5
 289 0130 CDB7      		in r28,__SP_L__
 290 0132 DEB7      		in r29,__SP_H__
 291               		.cfi_def_cfa_register 28
 292 0134 2897      		sbiw r28,8
 293               		.cfi_def_cfa_offset 14
 294 0136 0FB6      		in __tmp_reg__,__SREG__
 295 0138 F894      		cli
 296 013a DEBF      		out __SP_H__,r29
 297 013c 0FBE      		out __SREG__,__tmp_reg__
 298 013e CDBF      		out __SP_L__,r28
 299               	/* prologue: function */
 300               	/* frame size = 8 */
 301               	/* stack size = 12 */
 302               	.L__stack_usage = 12
 303 0140 2983      		std Y+1,r18
 304 0142 3A83      		std Y+2,r19
 305 0144 4B83      		std Y+3,r20
 306 0146 5C83      		std Y+4,r21
 307 0148 262F      		mov r18,r22
 308 014a 6D83      		std Y+5,r22
 309 014c 372F      		mov r19,r23
 310 014e 7E83      		std Y+6,r23
 311 0150 8F83      		std Y+7,r24
 312 0152 9887      		std Y+8,r25
 313 0154 8981      		ldd r24,Y+1
 314 0156 9A81      		ldd r25,Y+2
 315               	.LVL4:
 316               		.loc 1 60 1 view .LVU104
 317 0158 4B81      		ldd r20,Y+3
 318 015a 5C81      		ldd r21,Y+4
GAS LISTING /var/folders/b3/c8k8_7z16sxb5qhkpvrmv5jh0000gn/T//ccVKyh5f.s 			page 8


 319               	.LVL5:
 320               		.loc 1 60 1 view .LVU105
 321 015c B901      		movw r22,r18
 322               	.LVL6:
 323               		.loc 1 60 1 view .LVU106
 324 015e EF81      		ldd r30,Y+7
 325 0160 F885      		ldd r31,Y+8
 326               	.LVL7:
  61:lcd.c         **** 	uint16_t x, y;
 327               		.loc 1 61 2 is_stmt 1 view .LVU107
  62:lcd.c         **** 	write_cmd(COLUMN_ADDRESS_SET);
 328               		.loc 1 62 2 view .LVU108
 329 0162 2C98      		cbi 0x5,4
 330               		.loc 1 62 2 view .LVU109
 331 0164 2AE2      		ldi r18,lo8(42)
 332 0166 2BB9      		out 0xb,r18
 333               		.loc 1 62 2 view .LVU110
 334 0168 2B98      		cbi 0x5,3
 335               		.loc 1 62 2 view .LVU111
 336 016a 2B9A      		sbi 0x5,3
 337               		.loc 1 62 2 view .LVU112
 338 016c 2C9A      		sbi 0x5,4
 339               		.loc 1 62 31 view .LVU113
  63:lcd.c         **** 	write_data16(r.left);
 340               		.loc 1 63 2 view .LVU114
 341 016e 9BB9      		out 0xb,r25
 342               		.loc 1 63 2 view .LVU115
 343 0170 2B98      		cbi 0x5,3
 344               		.loc 1 63 2 view .LVU116
 345 0172 2B9A      		sbi 0x5,3
 346               		.loc 1 63 2 view .LVU117
 347               		.loc 1 63 2 view .LVU118
 348 0174 8BB9      		out 0xb,r24
 349               		.loc 1 63 2 view .LVU119
 350 0176 2B98      		cbi 0x5,3
 351               		.loc 1 63 2 view .LVU120
 352 0178 2B9A      		sbi 0x5,3
 353               		.loc 1 63 2 view .LVU121
 354               		.loc 1 63 22 view .LVU122
  64:lcd.c         **** 	write_data16(r.right);
 355               		.loc 1 64 2 view .LVU123
 356 017a 5BB9      		out 0xb,r21
 357               		.loc 1 64 2 view .LVU124
 358 017c 2B98      		cbi 0x5,3
 359               		.loc 1 64 2 view .LVU125
 360 017e 2B9A      		sbi 0x5,3
 361               		.loc 1 64 2 view .LVU126
 362               		.loc 1 64 2 view .LVU127
 363 0180 4BB9      		out 0xb,r20
 364               		.loc 1 64 2 view .LVU128
 365 0182 2B98      		cbi 0x5,3
 366               		.loc 1 64 2 view .LVU129
 367 0184 2B9A      		sbi 0x5,3
 368               		.loc 1 64 2 view .LVU130
 369               		.loc 1 64 23 view .LVU131
  65:lcd.c         **** 	write_cmd(PAGE_ADDRESS_SET);
 370               		.loc 1 65 2 view .LVU132
GAS LISTING /var/folders/b3/c8k8_7z16sxb5qhkpvrmv5jh0000gn/T//ccVKyh5f.s 			page 9


 371 0186 2C98      		cbi 0x5,4
 372               		.loc 1 65 2 view .LVU133
 373 0188 2BE2      		ldi r18,lo8(43)
 374 018a 2BB9      		out 0xb,r18
 375               		.loc 1 65 2 view .LVU134
 376 018c 2B98      		cbi 0x5,3
 377               		.loc 1 65 2 view .LVU135
 378 018e 2B9A      		sbi 0x5,3
 379               		.loc 1 65 2 view .LVU136
 380 0190 2C9A      		sbi 0x5,4
 381               		.loc 1 65 29 view .LVU137
  66:lcd.c         **** 	write_data16(r.top);
 382               		.loc 1 66 2 view .LVU138
 383 0192 7BB9      		out 0xb,r23
 384               		.loc 1 66 2 view .LVU139
 385 0194 2B98      		cbi 0x5,3
 386               		.loc 1 66 2 view .LVU140
 387 0196 2B9A      		sbi 0x5,3
 388               		.loc 1 66 2 view .LVU141
 389               		.loc 1 66 2 view .LVU142
 390 0198 6BB9      		out 0xb,r22
 391               		.loc 1 66 2 view .LVU143
 392 019a 2B98      		cbi 0x5,3
 393               		.loc 1 66 2 view .LVU144
 394 019c 2B9A      		sbi 0x5,3
 395               		.loc 1 66 2 view .LVU145
 396               		.loc 1 66 21 view .LVU146
  67:lcd.c         **** 	write_data16(r.bottom);
 397               		.loc 1 67 2 view .LVU147
 398 019e FBB9      		out 0xb,r31
 399               		.loc 1 67 2 view .LVU148
 400 01a0 2B98      		cbi 0x5,3
 401               		.loc 1 67 2 view .LVU149
 402 01a2 2B9A      		sbi 0x5,3
 403               		.loc 1 67 2 view .LVU150
 404               		.loc 1 67 2 view .LVU151
 405 01a4 EBB9      		out 0xb,r30
 406               		.loc 1 67 2 view .LVU152
 407 01a6 2B98      		cbi 0x5,3
 408               		.loc 1 67 2 view .LVU153
 409 01a8 2B9A      		sbi 0x5,3
 410               		.loc 1 67 2 view .LVU154
 411               		.loc 1 67 24 view .LVU155
  68:lcd.c         **** 	write_cmd(MEMORY_WRITE);
 412               		.loc 1 68 2 view .LVU156
 413 01aa 2C98      		cbi 0x5,4
 414               		.loc 1 68 2 view .LVU157
 415 01ac 2CE2      		ldi r18,lo8(44)
 416 01ae 2BB9      		out 0xb,r18
 417               		.loc 1 68 2 view .LVU158
 418 01b0 2B98      		cbi 0x5,3
 419               		.loc 1 68 2 view .LVU159
 420 01b2 2B9A      		sbi 0x5,3
 421               		.loc 1 68 2 view .LVU160
 422 01b4 2C9A      		sbi 0x5,4
 423               		.loc 1 68 25 view .LVU161
  69:lcd.c         **** 	for(x=r.left; x<=r.right; x++)
GAS LISTING /var/folders/b3/c8k8_7z16sxb5qhkpvrmv5jh0000gn/T//ccVKyh5f.s 			page 10


 424               		.loc 1 69 2 view .LVU162
 425               	.LVL8:
 426               	.L9:
 427               		.loc 1 69 16 discriminator 1 view .LVU163
 428               		.loc 1 69 2 is_stmt 0 discriminator 1 view .LVU164
 429 01b6 4817      		cp r20,r24
 430 01b8 5907      		cpc r21,r25
 431 01ba 00F4      		brsh .L12
 432               	/* epilogue start */
  70:lcd.c         **** 		for(y=r.top; y<=r.bottom; y++)
  71:lcd.c         **** 			write_data16(col);
  72:lcd.c         **** }
 433               		.loc 1 72 1 view .LVU165
 434 01bc 2896      		adiw r28,8
 435 01be 0FB6      		in __tmp_reg__,__SREG__
 436 01c0 F894      		cli
 437 01c2 DEBF      		out __SP_H__,r29
 438 01c4 0FBE      		out __SREG__,__tmp_reg__
 439 01c6 CDBF      		out __SP_L__,r28
 440 01c8 DF91      		pop r29
 441 01ca CF91      		pop r28
 442 01cc 1F91      		pop r17
 443 01ce 0F91      		pop r16
 444               	.LVL9:
 445               		.loc 1 72 1 view .LVU166
 446 01d0 0895      		ret
 447               	.LVL10:
 448               	.L10:
  71:lcd.c         **** }
 449               		.loc 1 71 4 is_stmt 1 discriminator 3 view .LVU167
 450 01d2 1BB9      		out 0xb,r17
  71:lcd.c         **** }
 451               		.loc 1 71 4 discriminator 3 view .LVU168
 452 01d4 2B98      		cbi 0x5,3
  71:lcd.c         **** }
 453               		.loc 1 71 4 discriminator 3 view .LVU169
 454 01d6 2B9A      		sbi 0x5,3
  71:lcd.c         **** }
 455               		.loc 1 71 4 discriminator 3 view .LVU170
  71:lcd.c         **** }
 456               		.loc 1 71 4 discriminator 3 view .LVU171
 457 01d8 0BB9      		out 0xb,r16
  71:lcd.c         **** }
 458               		.loc 1 71 4 discriminator 3 view .LVU172
 459 01da 2B98      		cbi 0x5,3
  71:lcd.c         **** }
 460               		.loc 1 71 4 discriminator 3 view .LVU173
 461 01dc 2B9A      		sbi 0x5,3
  71:lcd.c         **** }
 462               		.loc 1 71 4 discriminator 3 view .LVU174
  70:lcd.c         **** 		for(y=r.top; y<=r.bottom; y++)
 463               		.loc 1 70 29 discriminator 3 view .LVU175
  70:lcd.c         **** 		for(y=r.top; y<=r.bottom; y++)
 464               		.loc 1 70 30 is_stmt 0 discriminator 3 view .LVU176
 465 01de 2F5F      		subi r18,-1
 466 01e0 3F4F      		sbci r19,-1
 467               	.LVL11:
GAS LISTING /var/folders/b3/c8k8_7z16sxb5qhkpvrmv5jh0000gn/T//ccVKyh5f.s 			page 11


 468               	.L11:
  70:lcd.c         **** 		for(y=r.top; y<=r.bottom; y++)
 469               		.loc 1 70 16 is_stmt 1 discriminator 1 view .LVU177
  70:lcd.c         **** 		for(y=r.top; y<=r.bottom; y++)
 470               		.loc 1 70 3 is_stmt 0 discriminator 1 view .LVU178
 471 01e2 E217      		cp r30,r18
 472 01e4 F307      		cpc r31,r19
 473 01e6 00F4      		brsh .L10
  69:lcd.c         **** 	for(x=r.left; x<=r.right; x++)
 474               		.loc 1 69 28 is_stmt 1 discriminator 2 view .LVU179
  69:lcd.c         **** 	for(x=r.left; x<=r.right; x++)
 475               		.loc 1 69 29 is_stmt 0 discriminator 2 view .LVU180
 476 01e8 0196      		adiw r24,1
 477               	.LVL12:
  69:lcd.c         **** 	for(x=r.left; x<=r.right; x++)
 478               		.loc 1 69 29 discriminator 2 view .LVU181
 479 01ea 00C0      		rjmp .L9
 480               	.LVL13:
 481               	.L12:
  70:lcd.c         **** 		for(y=r.top; y<=r.bottom; y++)
 482               		.loc 1 70 8 view .LVU182
 483 01ec 9B01      		movw r18,r22
 484 01ee 00C0      		rjmp .L11
 485               		.cfi_endproc
 486               	.LFE3:
 487               		.size	fill_rectangle, .-fill_rectangle
 488               	.global	fill_rectangle_indexed
 489               		.type	fill_rectangle_indexed, @function
 490               	fill_rectangle_indexed:
 491               	.LVL14:
 492               	.LFB4:
  73:lcd.c         **** 
  74:lcd.c         **** void fill_rectangle_indexed(rectangle r, uint16_t* col)
  75:lcd.c         **** {
 493               		.loc 1 75 1 is_stmt 1 view -0
 494               		.cfi_startproc
 495               		.loc 1 75 1 is_stmt 0 view .LVU184
 496 01f0 0F93      		push r16
 497               		.cfi_def_cfa_offset 3
 498               		.cfi_offset 16, -2
 499 01f2 1F93      		push r17
 500               		.cfi_def_cfa_offset 4
 501               		.cfi_offset 17, -3
 502 01f4 CF93      		push r28
 503               		.cfi_def_cfa_offset 5
 504               		.cfi_offset 28, -4
 505 01f6 DF93      		push r29
 506               		.cfi_def_cfa_offset 6
 507               		.cfi_offset 29, -5
 508 01f8 CDB7      		in r28,__SP_L__
 509 01fa DEB7      		in r29,__SP_H__
 510               		.cfi_def_cfa_register 28
 511 01fc 2897      		sbiw r28,8
 512               		.cfi_def_cfa_offset 14
 513 01fe 0FB6      		in __tmp_reg__,__SREG__
 514 0200 F894      		cli
 515 0202 DEBF      		out __SP_H__,r29
GAS LISTING /var/folders/b3/c8k8_7z16sxb5qhkpvrmv5jh0000gn/T//ccVKyh5f.s 			page 12


 516 0204 0FBE      		out __SREG__,__tmp_reg__
 517 0206 CDBF      		out __SP_L__,r28
 518               	/* prologue: function */
 519               	/* frame size = 8 */
 520               	/* stack size = 12 */
 521               	.L__stack_usage = 12
 522 0208 2983      		std Y+1,r18
 523 020a 3A83      		std Y+2,r19
 524 020c 4B83      		std Y+3,r20
 525 020e 5C83      		std Y+4,r21
 526 0210 6D83      		std Y+5,r22
 527 0212 7E83      		std Y+6,r23
 528 0214 8F83      		std Y+7,r24
 529 0216 9887      		std Y+8,r25
 530 0218 2981      		ldd r18,Y+1
 531 021a 3A81      		ldd r19,Y+2
 532               	.LVL15:
 533               		.loc 1 75 1 view .LVU185
 534 021c AB81      		ldd r26,Y+3
 535 021e BC81      		ldd r27,Y+4
 536               	.LVL16:
 537               		.loc 1 75 1 view .LVU186
 538 0220 4F81      		ldd r20,Y+7
 539 0222 5885      		ldd r21,Y+8
 540               	.LVL17:
  76:lcd.c         **** 	uint16_t x, y;
 541               		.loc 1 76 2 is_stmt 1 view .LVU187
  77:lcd.c         **** 	write_cmd(COLUMN_ADDRESS_SET);
 542               		.loc 1 77 2 view .LVU188
 543 0224 2C98      		cbi 0x5,4
 544               		.loc 1 77 2 view .LVU189
 545 0226 8AE2      		ldi r24,lo8(42)
 546 0228 8BB9      		out 0xb,r24
 547               		.loc 1 77 2 view .LVU190
 548 022a 2B98      		cbi 0x5,3
 549               		.loc 1 77 2 view .LVU191
 550 022c 2B9A      		sbi 0x5,3
 551               		.loc 1 77 2 view .LVU192
 552 022e 2C9A      		sbi 0x5,4
 553               		.loc 1 77 31 view .LVU193
  78:lcd.c         **** 	write_data16(r.left);
 554               		.loc 1 78 2 view .LVU194
 555 0230 3BB9      		out 0xb,r19
 556               		.loc 1 78 2 view .LVU195
 557 0232 2B98      		cbi 0x5,3
 558               		.loc 1 78 2 view .LVU196
 559 0234 2B9A      		sbi 0x5,3
 560               		.loc 1 78 2 view .LVU197
 561               		.loc 1 78 2 view .LVU198
 562 0236 2BB9      		out 0xb,r18
 563               		.loc 1 78 2 view .LVU199
 564 0238 2B98      		cbi 0x5,3
 565               		.loc 1 78 2 view .LVU200
 566 023a 2B9A      		sbi 0x5,3
 567               		.loc 1 78 2 view .LVU201
 568               		.loc 1 78 22 view .LVU202
  79:lcd.c         **** 	write_data16(r.right);
GAS LISTING /var/folders/b3/c8k8_7z16sxb5qhkpvrmv5jh0000gn/T//ccVKyh5f.s 			page 13


 569               		.loc 1 79 2 view .LVU203
 570 023c BBB9      		out 0xb,r27
 571               		.loc 1 79 2 view .LVU204
 572 023e 2B98      		cbi 0x5,3
 573               		.loc 1 79 2 view .LVU205
 574 0240 2B9A      		sbi 0x5,3
 575               		.loc 1 79 2 view .LVU206
 576               		.loc 1 79 2 view .LVU207
 577 0242 ABB9      		out 0xb,r26
 578               		.loc 1 79 2 view .LVU208
 579 0244 2B98      		cbi 0x5,3
 580               		.loc 1 79 2 view .LVU209
 581 0246 2B9A      		sbi 0x5,3
 582               		.loc 1 79 2 view .LVU210
 583               		.loc 1 79 23 view .LVU211
  80:lcd.c         **** 	write_cmd(PAGE_ADDRESS_SET);
 584               		.loc 1 80 2 view .LVU212
 585 0248 2C98      		cbi 0x5,4
 586               		.loc 1 80 2 view .LVU213
 587 024a 8BE2      		ldi r24,lo8(43)
 588 024c 8BB9      		out 0xb,r24
 589               		.loc 1 80 2 view .LVU214
 590 024e 2B98      		cbi 0x5,3
 591               		.loc 1 80 2 view .LVU215
 592 0250 2B9A      		sbi 0x5,3
 593               		.loc 1 80 2 view .LVU216
 594 0252 2C9A      		sbi 0x5,4
 595               		.loc 1 80 29 view .LVU217
  81:lcd.c         **** 	write_data16(r.top);
 596               		.loc 1 81 2 view .LVU218
 597 0254 7BB9      		out 0xb,r23
 598               		.loc 1 81 2 view .LVU219
 599 0256 2B98      		cbi 0x5,3
 600               		.loc 1 81 2 view .LVU220
 601 0258 2B9A      		sbi 0x5,3
 602               		.loc 1 81 2 view .LVU221
 603               		.loc 1 81 2 view .LVU222
 604 025a 6BB9      		out 0xb,r22
 605               		.loc 1 81 2 view .LVU223
 606 025c 2B98      		cbi 0x5,3
 607               		.loc 1 81 2 view .LVU224
 608 025e 2B9A      		sbi 0x5,3
 609               		.loc 1 81 2 view .LVU225
 610               		.loc 1 81 21 view .LVU226
  82:lcd.c         **** 	write_data16(r.bottom);
 611               		.loc 1 82 2 view .LVU227
 612 0260 5BB9      		out 0xb,r21
 613               		.loc 1 82 2 view .LVU228
 614 0262 2B98      		cbi 0x5,3
 615               		.loc 1 82 2 view .LVU229
 616 0264 2B9A      		sbi 0x5,3
 617               		.loc 1 82 2 view .LVU230
 618               		.loc 1 82 2 view .LVU231
 619 0266 4BB9      		out 0xb,r20
 620               		.loc 1 82 2 view .LVU232
 621 0268 2B98      		cbi 0x5,3
 622               		.loc 1 82 2 view .LVU233
GAS LISTING /var/folders/b3/c8k8_7z16sxb5qhkpvrmv5jh0000gn/T//ccVKyh5f.s 			page 14


 623 026a 2B9A      		sbi 0x5,3
 624               		.loc 1 82 2 view .LVU234
 625               		.loc 1 82 24 view .LVU235
  83:lcd.c         **** 	write_cmd(MEMORY_WRITE);
 626               		.loc 1 83 2 view .LVU236
 627 026c 2C98      		cbi 0x5,4
 628               		.loc 1 83 2 view .LVU237
 629 026e 8CE2      		ldi r24,lo8(44)
 630 0270 8BB9      		out 0xb,r24
 631               		.loc 1 83 2 view .LVU238
 632 0272 2B98      		cbi 0x5,3
 633               		.loc 1 83 2 view .LVU239
 634 0274 2B9A      		sbi 0x5,3
 635               		.loc 1 83 2 view .LVU240
 636 0276 2C9A      		sbi 0x5,4
 637               		.loc 1 83 25 view .LVU241
  84:lcd.c         **** 	for(x=r.left; x<=r.right; x++)
 638               		.loc 1 84 2 view .LVU242
 639               	.LVL18:
 640               	.L14:
 641               		.loc 1 84 16 discriminator 1 view .LVU243
 642               		.loc 1 84 2 is_stmt 0 discriminator 1 view .LVU244
 643 0278 A217      		cp r26,r18
 644 027a B307      		cpc r27,r19
 645 027c 00F0      		brlo .L13
 646               		.loc 1 84 2 discriminator 1 view .LVU245
 647 027e F801      		movw r30,r16
  85:lcd.c         **** 		for(y=r.top; y<=r.bottom; y++)
 648               		.loc 1 85 8 view .LVU246
 649 0280 CB01      		movw r24,r22
 650 0282 00C0      		rjmp .L17
 651               	.LVL19:
 652               	.L15:
  86:lcd.c         **** 			write_data16(*col++);
 653               		.loc 1 86 4 is_stmt 1 discriminator 3 view .LVU247
 654               		.loc 1 86 4 is_stmt 0 discriminator 3 view .LVU248
 655 0284 1181      		ldd r17,Z+1
 656 0286 1BB9      		out 0xb,r17
 657               		.loc 1 86 4 is_stmt 1 discriminator 3 view .LVU249
 658 0288 2B98      		cbi 0x5,3
 659               		.loc 1 86 4 discriminator 3 view .LVU250
 660 028a 2B9A      		sbi 0x5,3
 661               		.loc 1 86 4 discriminator 3 view .LVU251
 662               		.loc 1 86 4 discriminator 3 view .LVU252
 663               	.LVL20:
 664               		.loc 1 86 4 is_stmt 0 discriminator 3 view .LVU253
 665 028c 1281      		ldd r17,Z+2
 666 028e 1BB9      		out 0xb,r17
 667               		.loc 1 86 4 is_stmt 1 discriminator 3 view .LVU254
 668 0290 2B98      		cbi 0x5,3
 669               		.loc 1 86 4 discriminator 3 view .LVU255
 670 0292 2B9A      		sbi 0x5,3
 671               		.loc 1 86 4 discriminator 3 view .LVU256
  85:lcd.c         **** 		for(y=r.top; y<=r.bottom; y++)
 672               		.loc 1 85 29 discriminator 3 view .LVU257
  85:lcd.c         **** 		for(y=r.top; y<=r.bottom; y++)
 673               		.loc 1 85 30 is_stmt 0 discriminator 3 view .LVU258
GAS LISTING /var/folders/b3/c8k8_7z16sxb5qhkpvrmv5jh0000gn/T//ccVKyh5f.s 			page 15


 674 0294 0196      		adiw r24,1
 675               	.LVL21:
  85:lcd.c         **** 		for(y=r.top; y<=r.bottom; y++)
 676               		.loc 1 85 30 discriminator 3 view .LVU259
 677 0296 3496      		adiw r30,4
 678               	.LVL22:
 679               	.L17:
  85:lcd.c         **** 		for(y=r.top; y<=r.bottom; y++)
 680               		.loc 1 85 30 discriminator 3 view .LVU260
 681 0298 8F01      		movw r16,r30
 682               	.LVL23:
  85:lcd.c         **** 		for(y=r.top; y<=r.bottom; y++)
 683               		.loc 1 85 16 is_stmt 1 discriminator 1 view .LVU261
  85:lcd.c         **** 		for(y=r.top; y<=r.bottom; y++)
 684               		.loc 1 85 3 is_stmt 0 discriminator 1 view .LVU262
 685 029a 4817      		cp r20,r24
 686 029c 5907      		cpc r21,r25
 687 029e 00F4      		brsh .L15
  84:lcd.c         **** 	for(x=r.left; x<=r.right; x++)
 688               		.loc 1 84 28 is_stmt 1 discriminator 2 view .LVU263
  84:lcd.c         **** 	for(x=r.left; x<=r.right; x++)
 689               		.loc 1 84 29 is_stmt 0 discriminator 2 view .LVU264
 690 02a0 2F5F      		subi r18,-1
 691 02a2 3F4F      		sbci r19,-1
 692               	.LVL24:
  84:lcd.c         **** 	for(x=r.left; x<=r.right; x++)
 693               		.loc 1 84 29 discriminator 2 view .LVU265
 694 02a4 00C0      		rjmp .L14
 695               	.LVL25:
 696               	.L13:
 697               	/* epilogue start */
  87:lcd.c         **** }
 698               		.loc 1 87 1 view .LVU266
 699 02a6 2896      		adiw r28,8
 700 02a8 0FB6      		in __tmp_reg__,__SREG__
 701 02aa F894      		cli
 702 02ac DEBF      		out __SP_H__,r29
 703 02ae 0FBE      		out __SREG__,__tmp_reg__
 704 02b0 CDBF      		out __SP_L__,r28
 705 02b2 DF91      		pop r29
 706 02b4 CF91      		pop r28
 707 02b6 1F91      		pop r17
 708               	.LVL26:
 709               		.loc 1 87 1 view .LVU267
 710 02b8 0F91      		pop r16
 711               		.loc 1 87 1 view .LVU268
 712 02ba 0895      		ret
 713               		.cfi_endproc
 714               	.LFE4:
 715               		.size	fill_rectangle_indexed, .-fill_rectangle_indexed
 716               	.global	clear_screen
 717               		.type	clear_screen, @function
 718               	clear_screen:
 719               	.LFB5:
  88:lcd.c         **** 
  89:lcd.c         **** void clear_screen()
  90:lcd.c         **** {
GAS LISTING /var/folders/b3/c8k8_7z16sxb5qhkpvrmv5jh0000gn/T//ccVKyh5f.s 			page 16


 720               		.loc 1 90 1 is_stmt 1 view -0
 721               		.cfi_startproc
 722 02bc 0F93      		push r16
 723               		.cfi_def_cfa_offset 3
 724               		.cfi_offset 16, -2
 725 02be 1F93      		push r17
 726               		.cfi_def_cfa_offset 4
 727               		.cfi_offset 17, -3
 728 02c0 CF93      		push r28
 729               		.cfi_def_cfa_offset 5
 730               		.cfi_offset 28, -4
 731 02c2 DF93      		push r29
 732               		.cfi_def_cfa_offset 6
 733               		.cfi_offset 29, -5
 734 02c4 CDB7      		in r28,__SP_L__
 735 02c6 DEB7      		in r29,__SP_H__
 736               		.cfi_def_cfa_register 28
 737 02c8 2897      		sbiw r28,8
 738               		.cfi_def_cfa_offset 14
 739 02ca 0FB6      		in __tmp_reg__,__SREG__
 740 02cc F894      		cli
 741 02ce DEBF      		out __SP_H__,r29
 742 02d0 0FBE      		out __SREG__,__tmp_reg__
 743 02d2 CDBF      		out __SP_L__,r28
 744               	/* prologue: function */
 745               	/* frame size = 8 */
 746               	/* stack size = 12 */
 747               	.L__stack_usage = 12
  91:lcd.c         **** 	display.x = 0;
 748               		.loc 1 91 2 view .LVU270
 749               		.loc 1 91 12 is_stmt 0 view .LVU271
 750 02d4 E0E0      		ldi r30,lo8(display)
 751 02d6 F0E0      		ldi r31,hi8(display)
 752 02d8 1782      		std Z+7,__zero_reg__
 753 02da 1682      		std Z+6,__zero_reg__
  92:lcd.c         **** 	display.y = 0;
 754               		.loc 1 92 2 is_stmt 1 view .LVU272
 755               		.loc 1 92 12 is_stmt 0 view .LVU273
 756 02dc 1186      		std Z+9,__zero_reg__
 757 02de 1086      		std Z+8,__zero_reg__
  93:lcd.c         **** 	rectangle r = {0, display.width-1, 0, display.height-1};
 758               		.loc 1 93 2 is_stmt 1 view .LVU274
 759               		.loc 1 93 12 is_stmt 0 view .LVU275
 760 02e0 1A82      		std Y+2,__zero_reg__
 761 02e2 1982      		std Y+1,__zero_reg__
 762               		.loc 1 93 33 view .LVU276
 763 02e4 8081      		ld r24,Z
 764 02e6 9181      		ldd r25,Z+1
 765 02e8 0197      		sbiw r24,1
 766               		.loc 1 93 12 view .LVU277
 767 02ea 482F      		mov r20,r24
 768 02ec 9C83      		std Y+4,r25
 769 02ee 8B83      		std Y+3,r24
 770 02f0 1E82      		std Y+6,__zero_reg__
 771 02f2 1D82      		std Y+5,__zero_reg__
 772               		.loc 1 93 54 view .LVU278
 773 02f4 8281      		ldd r24,Z+2
GAS LISTING /var/folders/b3/c8k8_7z16sxb5qhkpvrmv5jh0000gn/T//ccVKyh5f.s 			page 17


 774 02f6 9381      		ldd r25,Z+3
 775 02f8 0197      		sbiw r24,1
 776               		.loc 1 93 12 view .LVU279
 777 02fa 9887      		std Y+8,r25
 778 02fc 8F83      		std Y+7,r24
  94:lcd.c         **** 	fill_rectangle(r, display.background);
 779               		.loc 1 94 2 is_stmt 1 view .LVU280
 780 02fe 0485      		ldd r16,Z+12
 781 0300 1585      		ldd r17,Z+13
 782 0302 20E0      		ldi r18,0
 783 0304 3A81      		ldd r19,Y+2
 784 0306 5C81      		ldd r21,Y+4
 785 0308 60E0      		ldi r22,0
 786 030a 7E81      		ldd r23,Y+6
 787 030c 9885      		ldd r25,Y+8
 788 030e 0E94 0000 		call fill_rectangle
 789               	.LVL27:
 790               	/* epilogue start */
  95:lcd.c         **** }
 791               		.loc 1 95 1 is_stmt 0 view .LVU281
 792 0312 2896      		adiw r28,8
 793 0314 0FB6      		in __tmp_reg__,__SREG__
 794 0316 F894      		cli
 795 0318 DEBF      		out __SP_H__,r29
 796 031a 0FBE      		out __SREG__,__tmp_reg__
 797 031c CDBF      		out __SP_L__,r28
 798 031e DF91      		pop r29
 799 0320 CF91      		pop r28
 800 0322 1F91      		pop r17
 801 0324 0F91      		pop r16
 802 0326 0895      		ret
 803               		.cfi_endproc
 804               	.LFE5:
 805               		.size	clear_screen, .-clear_screen
 806               	.global	display_char
 807               		.type	display_char, @function
 808               	display_char:
 809               	.LVL28:
 810               	.LFB6:
  96:lcd.c         **** 
  97:lcd.c         **** void display_char(char c)
  98:lcd.c         **** {
 811               		.loc 1 98 1 is_stmt 1 view -0
 812               		.cfi_startproc
 813               		.loc 1 98 1 is_stmt 0 view .LVU283
 814 0328 AF92      		push r10
 815               		.cfi_def_cfa_offset 3
 816               		.cfi_offset 10, -2
 817 032a BF92      		push r11
 818               		.cfi_def_cfa_offset 4
 819               		.cfi_offset 11, -3
 820 032c CF92      		push r12
 821               		.cfi_def_cfa_offset 5
 822               		.cfi_offset 12, -4
 823 032e DF92      		push r13
 824               		.cfi_def_cfa_offset 6
 825               		.cfi_offset 13, -5
GAS LISTING /var/folders/b3/c8k8_7z16sxb5qhkpvrmv5jh0000gn/T//ccVKyh5f.s 			page 18


 826 0330 EF92      		push r14
 827               		.cfi_def_cfa_offset 7
 828               		.cfi_offset 14, -6
 829 0332 FF92      		push r15
 830               		.cfi_def_cfa_offset 8
 831               		.cfi_offset 15, -7
 832 0334 0F93      		push r16
 833               		.cfi_def_cfa_offset 9
 834               		.cfi_offset 16, -8
 835 0336 1F93      		push r17
 836               		.cfi_def_cfa_offset 10
 837               		.cfi_offset 17, -9
 838 0338 CF93      		push r28
 839               		.cfi_def_cfa_offset 11
 840               		.cfi_offset 28, -10
 841 033a DF93      		push r29
 842               		.cfi_def_cfa_offset 12
 843               		.cfi_offset 29, -11
 844               	/* prologue: function */
 845               	/* frame size = 0 */
 846               	/* stack size = 10 */
 847               	.L__stack_usage = 10
  99:lcd.c         **** 	uint16_t x, y;
 848               		.loc 1 99 2 is_stmt 1 view .LVU284
 100:lcd.c         **** 	PGM_P fdata; 
 849               		.loc 1 100 2 view .LVU285
 101:lcd.c         **** 	uint8_t bits, mask;
 850               		.loc 1 101 2 view .LVU286
 102:lcd.c         **** 	uint16_t sc=display.x, ec=display.x + 4, sp=display.y, ep=display.y + 7;
 851               		.loc 1 102 2 view .LVU287
 852               	.LVL29:
 103:lcd.c         **** 	if (c < 32 || c > 126) return;
 853               		.loc 1 103 2 view .LVU288
 854               		.loc 1 103 13 is_stmt 0 view .LVU289
 855 033c 90EE      		ldi r25,lo8(-32)
 856 033e 980F      		add r25,r24
 857               		.loc 1 103 5 view .LVU290
 858 0340 9F35      		cpi r25,lo8(95)
 859 0342 00F0      		brlo .+2
 860 0344 00C0      		rjmp .L19
 102:lcd.c         **** 	uint16_t sc=display.x, ec=display.x + 4, sp=display.y, ep=display.y + 7;
 861               		.loc 1 102 11 view .LVU291
 862 0346 4091 0000 		lds r20,display+6
 863 034a 5091 0000 		lds r21,display+6+1
 102:lcd.c         **** 	uint16_t sc=display.x, ec=display.x + 4, sp=display.y, ep=display.y + 7;
 864               		.loc 1 102 43 view .LVU292
 865 034e 2091 0000 		lds r18,display+8
 866 0352 3091 0000 		lds r19,display+8+1
 102:lcd.c         **** 	uint16_t sc=display.x, ec=display.x + 4, sp=display.y, ep=display.y + 7;
 867               		.loc 1 102 57 view .LVU293
 868 0356 B901      		movw r22,r18
 869 0358 695F      		subi r22,-7
 870 035a 7F4F      		sbci r23,-1
 104:lcd.c         **** 	fdata = (c - ' ')*5 + font5x7;
 871               		.loc 1 104 2 is_stmt 1 view .LVU294
 872               	.LVL30:
 105:lcd.c         **** 	write_cmd(PAGE_ADDRESS_SET);
GAS LISTING /var/folders/b3/c8k8_7z16sxb5qhkpvrmv5jh0000gn/T//ccVKyh5f.s 			page 19


 873               		.loc 1 105 2 view .LVU295
 874 035c 2C98      		cbi 0x5,4
 875               		.loc 1 105 2 view .LVU296
 876 035e 9BE2      		ldi r25,lo8(43)
 877 0360 9BB9      		out 0xb,r25
 878               		.loc 1 105 2 view .LVU297
 879 0362 2B98      		cbi 0x5,3
 880               		.loc 1 105 2 view .LVU298
 881 0364 2B9A      		sbi 0x5,3
 882               		.loc 1 105 2 view .LVU299
 883 0366 2C9A      		sbi 0x5,4
 884               		.loc 1 105 29 view .LVU300
 106:lcd.c         **** 	write_data16(sp);
 885               		.loc 1 106 2 view .LVU301
 886 0368 3BB9      		out 0xb,r19
 887               		.loc 1 106 2 view .LVU302
 888 036a 2B98      		cbi 0x5,3
 889               		.loc 1 106 2 view .LVU303
 890 036c 2B9A      		sbi 0x5,3
 891               		.loc 1 106 2 view .LVU304
 892               		.loc 1 106 2 view .LVU305
 893 036e 2BB9      		out 0xb,r18
 894               		.loc 1 106 2 view .LVU306
 895 0370 2B98      		cbi 0x5,3
 896               		.loc 1 106 2 view .LVU307
 897 0372 2B9A      		sbi 0x5,3
 898               		.loc 1 106 2 view .LVU308
 899               		.loc 1 106 18 view .LVU309
 107:lcd.c         **** 	write_data16(ep);
 900               		.loc 1 107 2 view .LVU310
 901 0374 7BB9      		out 0xb,r23
 902               		.loc 1 107 2 view .LVU311
 903 0376 2B98      		cbi 0x5,3
 904               		.loc 1 107 2 view .LVU312
 905 0378 2B9A      		sbi 0x5,3
 906               		.loc 1 107 2 view .LVU313
 907               		.loc 1 107 2 view .LVU314
 908 037a 6BB9      		out 0xb,r22
 909               		.loc 1 107 2 view .LVU315
 910 037c 2B98      		cbi 0x5,3
 911               		.loc 1 107 2 view .LVU316
 912 037e 2B9A      		sbi 0x5,3
 913               		.loc 1 107 2 view .LVU317
 914               		.loc 1 107 18 view .LVU318
 108:lcd.c         **** 	for(x=sc; x<=ec; x++) {
 915               		.loc 1 108 2 view .LVU319
 916               	.LVL31:
 104:lcd.c         **** 	write_cmd(PAGE_ADDRESS_SET);
 917               		.loc 1 104 13 is_stmt 0 view .LVU320
 918 0380 8052      		subi r24,32
 919 0382 990B      		sbc r25,r25
 920               	.LVL32:
 104:lcd.c         **** 	write_cmd(PAGE_ADDRESS_SET);
 921               		.loc 1 104 19 view .LVU321
 922 0384 A5E0      		ldi r26,lo8(5)
 923 0386 A89F      		mul r26,r24
 924 0388 F001      		movw r30,r0
GAS LISTING /var/folders/b3/c8k8_7z16sxb5qhkpvrmv5jh0000gn/T//ccVKyh5f.s 			page 20


 925 038a A99F      		mul r26,r25
 926 038c F00D      		add r31,r0
 927 038e 1124      		clr __zero_reg__
 104:lcd.c         **** 	write_cmd(PAGE_ADDRESS_SET);
 928               		.loc 1 104 8 view .LVU322
 929 0390 E050      		subi r30,lo8(-(font5x7))
 930 0392 F040      		sbci r31,hi8(-(font5x7))
 931               		.loc 1 108 7 view .LVU323
 932 0394 CA01      		movw r24,r20
 933 0396 D901      		movw r26,r18
 102:lcd.c         **** 	if (c < 32 || c > 126) return;
 934               		.loc 1 102 25 view .LVU324
 935 0398 7A01      		movw r14,r20
 936 039a C4E0      		ldi r28,4
 937 039c EC0E      		add r14,r28
 938 039e F11C      		adc r15,__zero_reg__
 109:lcd.c         **** 		write_cmd(COLUMN_ADDRESS_SET);
 939               		.loc 1 109 3 view .LVU325
 940 03a0 CAE2      		ldi r28,lo8(42)
 941 03a2 CC2E      		mov r12,r28
 110:lcd.c         **** 		write_data16(x);
 111:lcd.c         **** 		write_data16(x);
 112:lcd.c         **** 		write_cmd(MEMORY_WRITE);
 942               		.loc 1 112 3 view .LVU326
 943 03a4 DCE2      		ldi r29,lo8(44)
 944 03a6 BD2E      		mov r11,r29
 945               	.LVL33:
 946               	.L22:
 108:lcd.c         **** 		write_cmd(COLUMN_ADDRESS_SET);
 947               		.loc 1 108 12 is_stmt 1 discriminator 1 view .LVU327
 109:lcd.c         **** 		write_cmd(COLUMN_ADDRESS_SET);
 948               		.loc 1 109 3 is_stmt 0 discriminator 1 view .LVU328
 949 03a8 2C98      		cbi 0x5,4
 108:lcd.c         **** 		write_cmd(COLUMN_ADDRESS_SET);
 950               		.loc 1 108 2 discriminator 1 view .LVU329
 951 03aa E816      		cp r14,r24
 952 03ac F906      		cpc r15,r25
 953 03ae 00F4      		brsh .L29
 113:lcd.c         **** 		bits = pgm_read_byte(fdata++);
 114:lcd.c         **** 		for(y=sp, mask=0x01; y<=ep; y++, mask<<=1)
 115:lcd.c         **** 			write_data16((bits & mask) ? display.foreground : display.background);
 116:lcd.c         **** 	}
 117:lcd.c         **** 	write_cmd(COLUMN_ADDRESS_SET);
 954               		.loc 1 117 2 is_stmt 1 view .LVU330
 955               		.loc 1 117 2 view .LVU331
 956 03b0 EAE2      		ldi r30,lo8(42)
 957 03b2 EBB9      		out 0xb,r30
 958               		.loc 1 117 2 view .LVU332
 959 03b4 2B98      		cbi 0x5,3
 960               		.loc 1 117 2 view .LVU333
 961 03b6 2B9A      		sbi 0x5,3
 962               		.loc 1 117 2 view .LVU334
 963 03b8 2C9A      		sbi 0x5,4
 964               		.loc 1 117 31 view .LVU335
 118:lcd.c         **** 	write_data16(x);
 965               		.loc 1 118 2 view .LVU336
 966 03ba 9BB9      		out 0xb,r25
GAS LISTING /var/folders/b3/c8k8_7z16sxb5qhkpvrmv5jh0000gn/T//ccVKyh5f.s 			page 21


 967               		.loc 1 118 2 view .LVU337
 968 03bc 2B98      		cbi 0x5,3
 969               		.loc 1 118 2 view .LVU338
 970 03be 2B9A      		sbi 0x5,3
 971               		.loc 1 118 2 view .LVU339
 972               		.loc 1 118 2 view .LVU340
 973 03c0 8BB9      		out 0xb,r24
 974               		.loc 1 118 2 view .LVU341
 975 03c2 2B98      		cbi 0x5,3
 976               		.loc 1 118 2 view .LVU342
 977 03c4 2B9A      		sbi 0x5,3
 978               		.loc 1 118 2 view .LVU343
 979               		.loc 1 118 17 view .LVU344
 119:lcd.c         **** 	write_data16(x);
 980               		.loc 1 119 2 view .LVU345
 981 03c6 9BB9      		out 0xb,r25
 982               		.loc 1 119 2 view .LVU346
 983 03c8 2B98      		cbi 0x5,3
 984               		.loc 1 119 2 view .LVU347
 985 03ca 2B9A      		sbi 0x5,3
 986               		.loc 1 119 2 view .LVU348
 987               		.loc 1 119 2 view .LVU349
 988 03cc 8BB9      		out 0xb,r24
 989               		.loc 1 119 2 view .LVU350
 990 03ce 2B98      		cbi 0x5,3
 991               		.loc 1 119 2 view .LVU351
 992 03d0 2B9A      		sbi 0x5,3
 993               		.loc 1 119 2 view .LVU352
 994               		.loc 1 119 17 view .LVU353
 120:lcd.c         **** 	write_cmd(MEMORY_WRITE);
 995               		.loc 1 120 2 view .LVU354
 996 03d2 2C98      		cbi 0x5,4
 997               		.loc 1 120 2 view .LVU355
 998 03d4 8CE2      		ldi r24,lo8(44)
 999               	.LVL34:
 1000               		.loc 1 120 2 is_stmt 0 view .LVU356
 1001 03d6 8BB9      		out 0xb,r24
 1002               		.loc 1 120 2 is_stmt 1 view .LVU357
 1003 03d8 2B98      		cbi 0x5,3
 1004               		.loc 1 120 2 view .LVU358
 1005 03da 2B9A      		sbi 0x5,3
 1006               		.loc 1 120 2 view .LVU359
 1007 03dc 2C9A      		sbi 0x5,4
 1008               		.loc 1 120 25 view .LVU360
 121:lcd.c         **** 	for(y=sp; y<=ep; y++)
 1009               		.loc 1 121 2 view .LVU361
 1010               	.LVL35:
 1011               	.L30:
 1012               		.loc 1 121 12 discriminator 1 view .LVU362
 1013               		.loc 1 121 2 is_stmt 0 discriminator 1 view .LVU363
 1014 03de 6217      		cp r22,r18
 1015 03e0 7307      		cpc r23,r19
 1016 03e2 00F0      		brlo .+2
 1017 03e4 00C0      		rjmp .L31
 122:lcd.c         **** 		write_data16(display.background);
 1018               		.loc 1 122 35 is_stmt 1 view .LVU364
 123:lcd.c         **** 
GAS LISTING /var/folders/b3/c8k8_7z16sxb5qhkpvrmv5jh0000gn/T//ccVKyh5f.s 			page 22


 124:lcd.c         **** 	display.x += 6;
 1019               		.loc 1 124 2 view .LVU365
 1020               		.loc 1 124 12 is_stmt 0 view .LVU366
 1021 03e6 4A5F      		subi r20,-6
 1022 03e8 5F4F      		sbci r21,-1
 1023               	.LVL36:
 1024               		.loc 1 124 12 view .LVU367
 1025 03ea 5093 0000 		sts display+6+1,r21
 1026 03ee 4093 0000 		sts display+6,r20
 1027               	.LVL37:
 125:lcd.c         **** 	if (display.x >= display.width) { display.x=0; display.y+=8; }
 1028               		.loc 1 125 2 is_stmt 1 view .LVU368
 1029               		.loc 1 125 5 is_stmt 0 view .LVU369
 1030 03f2 8091 0000 		lds r24,display
 1031 03f6 9091 0000 		lds r25,display+1
 1032 03fa 4817      		cp r20,r24
 1033 03fc 5907      		cpc r21,r25
 1034 03fe 00F0      		brlo .L19
 1035               		.loc 1 125 36 is_stmt 1 discriminator 1 view .LVU370
 1036               		.loc 1 125 45 is_stmt 0 discriminator 1 view .LVU371
 1037 0400 1092 0000 		sts display+6+1,__zero_reg__
 1038 0404 1092 0000 		sts display+6,__zero_reg__
 1039               		.loc 1 125 49 is_stmt 1 discriminator 1 view .LVU372
 1040               		.loc 1 125 58 is_stmt 0 discriminator 1 view .LVU373
 1041 0408 1896      		adiw r26,8
 1042               	.LVL38:
 1043               		.loc 1 125 58 discriminator 1 view .LVU374
 1044 040a B093 0000 		sts display+8+1,r27
 1045 040e A093 0000 		sts display+8,r26
 1046               	.LVL39:
 1047               	.L19:
 1048               	/* epilogue start */
 126:lcd.c         **** }
 1049               		.loc 1 126 1 view .LVU375
 1050 0412 DF91      		pop r29
 1051 0414 CF91      		pop r28
 1052 0416 1F91      		pop r17
 1053 0418 0F91      		pop r16
 1054 041a FF90      		pop r15
 1055 041c EF90      		pop r14
 1056 041e DF90      		pop r13
 1057 0420 CF90      		pop r12
 1058 0422 BF90      		pop r11
 1059 0424 AF90      		pop r10
 1060 0426 0895      		ret
 1061               	.LVL40:
 1062               	.L29:
 109:lcd.c         **** 		write_data16(x);
 1063               		.loc 1 109 3 is_stmt 1 view .LVU376
 109:lcd.c         **** 		write_data16(x);
 1064               		.loc 1 109 3 view .LVU377
 1065 0428 CBB8      		out 0xb,r12
 109:lcd.c         **** 		write_data16(x);
 1066               		.loc 1 109 3 view .LVU378
 1067 042a 2B98      		cbi 0x5,3
 109:lcd.c         **** 		write_data16(x);
 1068               		.loc 1 109 3 view .LVU379
GAS LISTING /var/folders/b3/c8k8_7z16sxb5qhkpvrmv5jh0000gn/T//ccVKyh5f.s 			page 23


 1069 042c 2B9A      		sbi 0x5,3
 109:lcd.c         **** 		write_data16(x);
 1070               		.loc 1 109 3 view .LVU380
 1071 042e 2C9A      		sbi 0x5,4
 109:lcd.c         **** 		write_data16(x);
 1072               		.loc 1 109 32 view .LVU381
 110:lcd.c         **** 		write_data16(x);
 1073               		.loc 1 110 3 view .LVU382
 1074 0430 9BB9      		out 0xb,r25
 110:lcd.c         **** 		write_data16(x);
 1075               		.loc 1 110 3 view .LVU383
 1076 0432 2B98      		cbi 0x5,3
 110:lcd.c         **** 		write_data16(x);
 1077               		.loc 1 110 3 view .LVU384
 1078 0434 2B9A      		sbi 0x5,3
 110:lcd.c         **** 		write_data16(x);
 1079               		.loc 1 110 3 view .LVU385
 110:lcd.c         **** 		write_data16(x);
 1080               		.loc 1 110 3 view .LVU386
 1081 0436 8BB9      		out 0xb,r24
 110:lcd.c         **** 		write_data16(x);
 1082               		.loc 1 110 3 view .LVU387
 1083 0438 2B98      		cbi 0x5,3
 110:lcd.c         **** 		write_data16(x);
 1084               		.loc 1 110 3 view .LVU388
 1085 043a 2B9A      		sbi 0x5,3
 110:lcd.c         **** 		write_data16(x);
 1086               		.loc 1 110 3 view .LVU389
 110:lcd.c         **** 		write_data16(x);
 1087               		.loc 1 110 18 view .LVU390
 111:lcd.c         **** 		write_cmd(MEMORY_WRITE);
 1088               		.loc 1 111 3 view .LVU391
 1089 043c 9BB9      		out 0xb,r25
 111:lcd.c         **** 		write_cmd(MEMORY_WRITE);
 1090               		.loc 1 111 3 view .LVU392
 1091 043e 2B98      		cbi 0x5,3
 111:lcd.c         **** 		write_cmd(MEMORY_WRITE);
 1092               		.loc 1 111 3 view .LVU393
 1093 0440 2B9A      		sbi 0x5,3
 111:lcd.c         **** 		write_cmd(MEMORY_WRITE);
 1094               		.loc 1 111 3 view .LVU394
 111:lcd.c         **** 		write_cmd(MEMORY_WRITE);
 1095               		.loc 1 111 3 view .LVU395
 1096 0442 8BB9      		out 0xb,r24
 111:lcd.c         **** 		write_cmd(MEMORY_WRITE);
 1097               		.loc 1 111 3 view .LVU396
 1098 0444 2B98      		cbi 0x5,3
 111:lcd.c         **** 		write_cmd(MEMORY_WRITE);
 1099               		.loc 1 111 3 view .LVU397
 1100 0446 2B9A      		sbi 0x5,3
 111:lcd.c         **** 		write_cmd(MEMORY_WRITE);
 1101               		.loc 1 111 3 view .LVU398
 111:lcd.c         **** 		write_cmd(MEMORY_WRITE);
 1102               		.loc 1 111 18 view .LVU399
 112:lcd.c         **** 		bits = pgm_read_byte(fdata++);
 1103               		.loc 1 112 3 view .LVU400
 1104 0448 2C98      		cbi 0x5,4
GAS LISTING /var/folders/b3/c8k8_7z16sxb5qhkpvrmv5jh0000gn/T//ccVKyh5f.s 			page 24


 112:lcd.c         **** 		bits = pgm_read_byte(fdata++);
 1105               		.loc 1 112 3 view .LVU401
 1106 044a BBB8      		out 0xb,r11
 112:lcd.c         **** 		bits = pgm_read_byte(fdata++);
 1107               		.loc 1 112 3 view .LVU402
 1108 044c 2B98      		cbi 0x5,3
 112:lcd.c         **** 		bits = pgm_read_byte(fdata++);
 1109               		.loc 1 112 3 view .LVU403
 1110 044e 2B9A      		sbi 0x5,3
 112:lcd.c         **** 		bits = pgm_read_byte(fdata++);
 1111               		.loc 1 112 3 view .LVU404
 1112 0450 2C9A      		sbi 0x5,4
 112:lcd.c         **** 		bits = pgm_read_byte(fdata++);
 1113               		.loc 1 112 26 view .LVU405
 113:lcd.c         **** 		for(y=sp, mask=0x01; y<=ep; y++, mask<<=1)
 1114               		.loc 1 113 3 view .LVU406
 1115               	.LBB2:
 113:lcd.c         **** 		for(y=sp, mask=0x01; y<=ep; y++, mask<<=1)
 1116               		.loc 1 113 10 view .LVU407
 1117               	.LVL41:
 113:lcd.c         **** 		for(y=sp, mask=0x01; y<=ep; y++, mask<<=1)
 1118               		.loc 1 113 10 view .LVU408
 113:lcd.c         **** 		for(y=sp, mask=0x01; y<=ep; y++, mask<<=1)
 1119               		.loc 1 113 10 view .LVU409
 1120               	/* #APP */
 1121               	 ;  113 "lcd.c" 1
 1122 0452 A490      		lpm r10, Z
 1123               		
 1124               	 ;  0 "" 2
 1125               	.LVL42:
 113:lcd.c         **** 		for(y=sp, mask=0x01; y<=ep; y++, mask<<=1)
 1126               		.loc 1 113 10 view .LVU410
 113:lcd.c         **** 		for(y=sp, mask=0x01; y<=ep; y++, mask<<=1)
 1127               		.loc 1 113 10 is_stmt 0 view .LVU411
 1128               	/* #NOAPP */
 1129               	.LBE2:
 114:lcd.c         **** 			write_data16((bits & mask) ? display.foreground : display.background);
 1130               		.loc 1 114 3 is_stmt 1 view .LVU412
 114:lcd.c         **** 			write_data16((bits & mask) ? display.foreground : display.background);
 1131               		.loc 1 114 8 is_stmt 0 view .LVU413
 1132 0454 E901      		movw r28,r18
 114:lcd.c         **** 			write_data16((bits & mask) ? display.foreground : display.background);
 1133               		.loc 1 114 17 view .LVU414
 1134 0456 11E0      		ldi r17,lo8(1)
 1135               	.LVL43:
 1136               	.L23:
 114:lcd.c         **** 			write_data16((bits & mask) ? display.foreground : display.background);
 1137               		.loc 1 114 24 is_stmt 1 discriminator 2 view .LVU415
 114:lcd.c         **** 			write_data16((bits & mask) ? display.foreground : display.background);
 1138               		.loc 1 114 3 is_stmt 0 discriminator 2 view .LVU416
 1139 0458 6C17      		cp r22,r28
 1140 045a 7D07      		cpc r23,r29
 1141 045c 00F4      		brsh .L28
 115:lcd.c         **** 	}
 1142               		.loc 1 115 73 is_stmt 1 discriminator 2 view .LVU417
 108:lcd.c         **** 		write_cmd(COLUMN_ADDRESS_SET);
 1143               		.loc 1 108 19 discriminator 2 view .LVU418
GAS LISTING /var/folders/b3/c8k8_7z16sxb5qhkpvrmv5jh0000gn/T//ccVKyh5f.s 			page 25


 108:lcd.c         **** 		write_cmd(COLUMN_ADDRESS_SET);
 1144               		.loc 1 108 20 is_stmt 0 discriminator 2 view .LVU419
 1145 045e 0196      		adiw r24,1
 1146               	.LVL44:
 108:lcd.c         **** 		write_cmd(COLUMN_ADDRESS_SET);
 1147               		.loc 1 108 20 discriminator 2 view .LVU420
 1148 0460 3196      		adiw r30,1
 1149               	.LVL45:
 108:lcd.c         **** 		write_cmd(COLUMN_ADDRESS_SET);
 1150               		.loc 1 108 20 discriminator 2 view .LVU421
 1151 0462 00C0      		rjmp .L22
 1152               	.LVL46:
 1153               	.L28:
 115:lcd.c         **** 	}
 1154               		.loc 1 115 4 is_stmt 1 view .LVU422
 1155 0464 012F      		mov r16,r17
 1156 0466 0A21      		and r16,r10
 1157 0468 D090 0000 		lds r13,display+11
 1158 046c 0111      		cpse r16,__zero_reg__
 1159 046e 00C0      		rjmp .L25
 115:lcd.c         **** 	}
 1160               		.loc 1 115 4 is_stmt 0 discriminator 2 view .LVU423
 1161 0470 D090 0000 		lds r13,display+13
 1162               	.L25:
 115:lcd.c         **** 	}
 1163               		.loc 1 115 4 discriminator 4 view .LVU424
 1164 0474 DBB8      		out 0xb,r13
 115:lcd.c         **** 	}
 1165               		.loc 1 115 4 is_stmt 1 discriminator 4 view .LVU425
 1166 0476 2B98      		cbi 0x5,3
 115:lcd.c         **** 	}
 1167               		.loc 1 115 4 discriminator 4 view .LVU426
 1168 0478 2B9A      		sbi 0x5,3
 115:lcd.c         **** 	}
 1169               		.loc 1 115 4 discriminator 4 view .LVU427
 115:lcd.c         **** 	}
 1170               		.loc 1 115 4 discriminator 4 view .LVU428
 1171 047a 0023      		tst r16
 1172 047c 01F0      		breq .L26
 115:lcd.c         **** 	}
 1173               		.loc 1 115 4 is_stmt 0 discriminator 5 view .LVU429
 1174 047e 0091 0000 		lds r16,display+10
 1175               	.L27:
 115:lcd.c         **** 	}
 1176               		.loc 1 115 4 discriminator 8 view .LVU430
 1177 0482 0BB9      		out 0xb,r16
 115:lcd.c         **** 	}
 1178               		.loc 1 115 4 is_stmt 1 discriminator 8 view .LVU431
 1179 0484 2B98      		cbi 0x5,3
 115:lcd.c         **** 	}
 1180               		.loc 1 115 4 discriminator 8 view .LVU432
 1181 0486 2B9A      		sbi 0x5,3
 115:lcd.c         **** 	}
 1182               		.loc 1 115 4 discriminator 8 view .LVU433
 114:lcd.c         **** 			write_data16((bits & mask) ? display.foreground : display.background);
 1183               		.loc 1 114 31 discriminator 8 view .LVU434
 114:lcd.c         **** 			write_data16((bits & mask) ? display.foreground : display.background);
GAS LISTING /var/folders/b3/c8k8_7z16sxb5qhkpvrmv5jh0000gn/T//ccVKyh5f.s 			page 26


 1184               		.loc 1 114 32 is_stmt 0 discriminator 8 view .LVU435
 1185 0488 2196      		adiw r28,1
 1186               	.LVL47:
 114:lcd.c         **** 			write_data16((bits & mask) ? display.foreground : display.background);
 1187               		.loc 1 114 40 discriminator 8 view .LVU436
 1188 048a 110F      		lsl r17
 1189               	.LVL48:
 114:lcd.c         **** 			write_data16((bits & mask) ? display.foreground : display.background);
 1190               		.loc 1 114 40 discriminator 8 view .LVU437
 1191 048c 00C0      		rjmp .L23
 1192               	.L26:
 115:lcd.c         **** 	}
 1193               		.loc 1 115 4 discriminator 6 view .LVU438
 1194 048e 0091 0000 		lds r16,display+12
 1195 0492 00C0      		rjmp .L27
 1196               	.LVL49:
 1197               	.L31:
 122:lcd.c         **** 
 1198               		.loc 1 122 3 is_stmt 1 discriminator 3 view .LVU439
 1199 0494 8091 0000 		lds r24,display+13
 1200 0498 8BB9      		out 0xb,r24
 122:lcd.c         **** 
 1201               		.loc 1 122 3 discriminator 3 view .LVU440
 1202 049a 2B98      		cbi 0x5,3
 122:lcd.c         **** 
 1203               		.loc 1 122 3 discriminator 3 view .LVU441
 1204 049c 2B9A      		sbi 0x5,3
 122:lcd.c         **** 
 1205               		.loc 1 122 3 discriminator 3 view .LVU442
 122:lcd.c         **** 
 1206               		.loc 1 122 3 discriminator 3 view .LVU443
 1207 049e 8091 0000 		lds r24,display+12
 1208 04a2 8BB9      		out 0xb,r24
 122:lcd.c         **** 
 1209               		.loc 1 122 3 discriminator 3 view .LVU444
 1210 04a4 2B98      		cbi 0x5,3
 122:lcd.c         **** 
 1211               		.loc 1 122 3 discriminator 3 view .LVU445
 1212 04a6 2B9A      		sbi 0x5,3
 122:lcd.c         **** 
 1213               		.loc 1 122 3 discriminator 3 view .LVU446
 121:lcd.c         **** 		write_data16(display.background);
 1214               		.loc 1 121 19 discriminator 3 view .LVU447
 121:lcd.c         **** 		write_data16(display.background);
 1215               		.loc 1 121 20 is_stmt 0 discriminator 3 view .LVU448
 1216 04a8 2F5F      		subi r18,-1
 1217 04aa 3F4F      		sbci r19,-1
 1218               	.LVL50:
 121:lcd.c         **** 		write_data16(display.background);
 1219               		.loc 1 121 20 discriminator 3 view .LVU449
 1220 04ac 00C0      		rjmp .L30
 1221               		.cfi_endproc
 1222               	.LFE6:
 1223               		.size	display_char, .-display_char
 1224               	.global	display_string
 1225               		.type	display_string, @function
 1226               	display_string:
GAS LISTING /var/folders/b3/c8k8_7z16sxb5qhkpvrmv5jh0000gn/T//ccVKyh5f.s 			page 27


 1227               	.LVL51:
 1228               	.LFB7:
 127:lcd.c         **** 
 128:lcd.c         **** void display_string(char *str)
 129:lcd.c         **** {
 1229               		.loc 1 129 1 is_stmt 1 view -0
 1230               		.cfi_startproc
 1231               		.loc 1 129 1 is_stmt 0 view .LVU451
 1232 04ae 1F93      		push r17
 1233               		.cfi_def_cfa_offset 3
 1234               		.cfi_offset 17, -2
 1235 04b0 CF93      		push r28
 1236               		.cfi_def_cfa_offset 4
 1237               		.cfi_offset 28, -3
 1238 04b2 DF93      		push r29
 1239               		.cfi_def_cfa_offset 5
 1240               		.cfi_offset 29, -4
 1241               	/* prologue: function */
 1242               	/* frame size = 0 */
 1243               	/* stack size = 3 */
 1244               	.L__stack_usage = 3
 1245 04b4 EC01      		movw r28,r24
 130:lcd.c         **** 	uint8_t i;
 1246               		.loc 1 130 2 is_stmt 1 view .LVU452
 131:lcd.c         **** 	for(i=0; str[i]; i++) 
 1247               		.loc 1 131 2 view .LVU453
 1248               	.LVL52:
 1249               		.loc 1 131 7 is_stmt 0 view .LVU454
 1250 04b6 10E0      		ldi r17,0
 1251               	.LVL53:
 1252               	.L34:
 1253               		.loc 1 131 11 is_stmt 1 discriminator 1 view .LVU455
 1254               		.loc 1 131 14 is_stmt 0 discriminator 1 view .LVU456
 1255 04b8 FE01      		movw r30,r28
 1256 04ba E10F      		add r30,r17
 1257 04bc F11D      		adc r31,__zero_reg__
 1258 04be 8081      		ld r24,Z
 1259               		.loc 1 131 2 discriminator 1 view .LVU457
 1260 04c0 8111      		cpse r24,__zero_reg__
 1261 04c2 00C0      		rjmp .L35
 1262               	/* epilogue start */
 132:lcd.c         **** 		display_char(str[i]);
 133:lcd.c         **** }
 1263               		.loc 1 133 1 view .LVU458
 1264 04c4 DF91      		pop r29
 1265 04c6 CF91      		pop r28
 1266               	.LVL54:
 1267               		.loc 1 133 1 view .LVU459
 1268 04c8 1F91      		pop r17
 1269               	.LVL55:
 1270               		.loc 1 133 1 view .LVU460
 1271 04ca 0895      		ret
 1272               	.LVL56:
 1273               	.L35:
 132:lcd.c         **** 		display_char(str[i]);
 1274               		.loc 1 132 3 is_stmt 1 discriminator 3 view .LVU461
 1275 04cc 0E94 0000 		call display_char
GAS LISTING /var/folders/b3/c8k8_7z16sxb5qhkpvrmv5jh0000gn/T//ccVKyh5f.s 			page 28


 1276               	.LVL57:
 131:lcd.c         **** 	for(i=0; str[i]; i++) 
 1277               		.loc 1 131 19 discriminator 3 view .LVU462
 131:lcd.c         **** 	for(i=0; str[i]; i++) 
 1278               		.loc 1 131 20 is_stmt 0 discriminator 3 view .LVU463
 1279 04d0 1F5F      		subi r17,lo8(-(1))
 1280               	.LVL58:
 131:lcd.c         **** 	for(i=0; str[i]; i++) 
 1281               		.loc 1 131 20 discriminator 3 view .LVU464
 1282 04d2 00C0      		rjmp .L34
 1283               		.cfi_endproc
 1284               	.LFE7:
 1285               		.size	display_string, .-display_string
 1286               	.global	display
 1287               		.data
 1288               		.type	display, @object
 1289               		.size	display, 14
 1290               	display:
 1291 0000 F000      		.word	240
 1292 0002 4001      		.word	320
 1293 0004 0000      		.word	0
 1294 0006 0000      		.word	0
 1295 0008 0000      		.word	0
 1296 000a FFFF      		.word	-1
 1297 000c 0000      		.word	0
 1298               		.text
 1299               	.Letext0:
 1300               		.file 2 "/usr/local/Cellar/avr-gcc/9.2.0/avr/include/stdint.h"
 1301               		.file 3 "lcd.h"
 1302               		.file 4 "font.h"
 1303               		.file 5 "ili934x.h"