GAS LISTING /var/folders/b3/c8k8_7z16sxb5qhkpvrmv5jh0000gn/T//ccVKyh5f.s 			page 1


   1               		.file	"lcd.c"
   2               	__SP_H__ = 0x3e
   3               	__SP_L__ = 0x3d
   4               	__SREG__ = 0x3f
   5               	__tmp_reg__ = 0
   6               	__zero_reg__ = 1
   7               		.text
   8               	.Ltext0:
   9               		.cfi_sections	.debug_frame
  10               	.global	init_lcd
  11               		.type	init_lcd, @function
  12               	init_lcd:
  13               	.LFB1:
  14               		.file 1 "lcd.c"
   1:lcd.c         **** /*  Author: Steve Gunn
   2:lcd.c         ****  * Licence: This work is licensed under the Creative Commons Attribution License.
   3:lcd.c         ****  *           View this license at http://creativecommons.org/about/licenses/
   4:lcd.c         ****  */
   5:lcd.c         ****  
   6:lcd.c         **** #include "ili934x.h"
   7:lcd.c         **** #include "font.h"
   8:lcd.c         **** #include "lcd.h"
   9:lcd.c         **** 
  10:lcd.c         **** lcd display = {LCDWIDTH, LCDHEIGHT, North, 0, 0, WHITE, BLACK};
  11:lcd.c         **** 
  12:lcd.c         **** void init_lcd()
  13:lcd.c         **** {
  15               		.loc 1 13 1 view -0
  16               		.cfi_startproc
  17               	/* prologue: function */
  18               	/* frame size = 0 */
  19               	/* stack size = 0 */
  20               	.L__stack_usage = 0
  14:lcd.c         **** 	/* Disable JTAG in software, so that it does not interfere with Port C  */
  15:lcd.c         **** 	/* It will be re-enabled after a power cycle if the JTAGEN fuse is set. */
  16:lcd.c         **** 	MCUCR |= (1<<JTD);
  21               		.loc 1 16 2 view .LVU1
  22               		.loc 1 16 8 is_stmt 0 view .LVU2
  23 0000 85B7      		in r24,0x35
  24 0002 8068      		ori r24,lo8(-128)
  25 0004 85BF      		out 0x35,r24
  17:lcd.c         **** 	MCUCR |= (1<<JTD);
  26               		.loc 1 17 2 is_stmt 1 view .LVU3
  27               		.loc 1 17 8 is_stmt 0 view .LVU4
  28 0006 85B7      		in r24,0x35
  29 0008 8068      		ori r24,lo8(-128)
  30 000a 85BF      		out 0x35,r24
  18:lcd.c         **** 	
  19:lcd.c         **** 	/* Configure ports */
  20:lcd.c         **** 
  21:lcd.c         **** 	CTRL_DDR = 0x7F;
  31               		.loc 1 21 2 is_stmt 1 view .LVU5
  32               		.loc 1 21 11 is_stmt 0 view .LVU6
  33 000c 8FE7      		ldi r24,lo8(127)
  34 000e 84B9      		out 0x4,r24
  22:lcd.c         **** 	DATA_DDR = 0xFF;
  35               		.loc 1 22 2 is_stmt 1 view .LVU7
GAS LISTING /var/folders/b3/c8k8_7z16sxb5qhkpvrmv5jh0000gn/T//ccVKyh5f.s 			page 2


  36               		.loc 1 22 11 is_stmt 0 view .LVU8
  37 0010 8FEF      		ldi r24,lo8(-1)
  38 0012 8AB9      		out 0xa,r24
  23:lcd.c         **** 	
  24:lcd.c         **** 	init_display_controller();
  39               		.loc 1 24 2 is_stmt 1 view .LVU9
  40 0014 0C94 0000 		jmp init_display_controller
  41               	.LVL0:
  42               		.cfi_endproc
  43               	.LFE1:
  44               		.size	init_lcd, .-init_lcd
  45               	.global	set_orientation
  46               		.type	set_orientation, @function
  47               	set_orientation:
  48               	.LVL1:
  49               	.LFB2:
  25:lcd.c         **** }
  26:lcd.c         **** 
  27:lcd.c         **** void set_orientation(orientation o)
  28:lcd.c         **** {
  50               		.loc 1 28 1 view -0
  51               		.cfi_startproc
  52               	/* prologue: function */
  53               	/* frame size = 0 */
  54               	/* stack size = 0 */
  55               	.L__stack_usage = 0
  56               		.loc 1 28 1 is_stmt 0 view .LVU11
  57 0018 9C01      		movw r18,r24
  29:lcd.c         **** 	display.orient = o;
  58               		.loc 1 29 2 is_stmt 1 view .LVU12
  59               		.loc 1 29 17 is_stmt 0 view .LVU13
  60 001a 9093 0000 		sts display+4+1,r25
  61 001e 8093 0000 		sts display+4,r24
  30:lcd.c         **** 	write_cmd(MEMORY_ACCESS_CONTROL);
  62               		.loc 1 30 2 is_stmt 1 view .LVU14
  63 0022 2C98      		cbi 0x5,4
  64               		.loc 1 30 2 view .LVU15
  65 0024 86E3      		ldi r24,lo8(54)
  66               	.LVL2:
  67               		.loc 1 30 2 is_stmt 0 view .LVU16
  68 0026 8BB9      		out 0xb,r24
  69               		.loc 1 30 2 is_stmt 1 view .LVU17
  70 0028 2B98      		cbi 0x5,3
  71               		.loc 1 30 2 view .LVU18
  72 002a 2B9A      		sbi 0x5,3
  73               		.loc 1 30 2 view .LVU19
  74 002c 2C9A      		sbi 0x5,4
  75               		.loc 1 30 34 view .LVU20
  31:lcd.c         **** 	if (o==North) { 
  76               		.loc 1 31 2 view .LVU21
  77               		.loc 1 31 5 is_stmt 0 view .LVU22
  78 002e 2115      		cp r18,__zero_reg__
  79 0030 3105      		cpc r19,__zero_reg__
  80 0032 01F0      		breq .+2
  81 0034 00C0      		rjmp .L3
  32:lcd.c         **** 		display.width = LCDWIDTH;
  82               		.loc 1 32 3 is_stmt 1 view .LVU23
GAS LISTING /var/folders/b3/c8k8_7z16sxb5qhkpvrmv5jh0000gn/T//ccVKyh5f.s 			page 3


  83               		.loc 1 32 17 is_stmt 0 view .LVU24
  84 0036 80EF      		ldi r24,lo8(-16)
  85 0038 90E0      		ldi r25,0
  86 003a 9093 0000 		sts display+1,r25
  87 003e 8093 0000 		sts display,r24
  33:lcd.c         **** 		display.height = LCDHEIGHT;
  88               		.loc 1 33 3 is_stmt 1 view .LVU25
  89               		.loc 1 33 18 is_stmt 0 view .LVU26
  90 0042 80E4      		ldi r24,lo8(64)
  91 0044 91E0      		ldi r25,lo8(1)
  92 0046 9093 0000 		sts display+2+1,r25
  93 004a 8093 0000 		sts display+2,r24
  34:lcd.c         **** 		write_data(0x48);
  94               		.loc 1 34 3 is_stmt 1 view .LVU27
  95 004e 88E4      		ldi r24,lo8(72)
  96               	.L7:
  35:lcd.c         **** 	}
  36:lcd.c         **** 	else if (o==West) {
  37:lcd.c         **** 		display.width = LCDHEIGHT;
  38:lcd.c         **** 		display.height = LCDWIDTH;
  39:lcd.c         **** 		write_data(0xE8);
  40:lcd.c         **** 	}
  41:lcd.c         **** 	else if (o==South) {
  42:lcd.c         **** 		display.width = LCDWIDTH;
  43:lcd.c         **** 		display.height = LCDHEIGHT;
  44:lcd.c         **** 		write_data(0x88);
  45:lcd.c         **** 	}
  46:lcd.c         **** 	else if (o==East) {
  47:lcd.c         **** 		display.width = LCDHEIGHT;
  48:lcd.c         **** 		display.height = LCDWIDTH;
  49:lcd.c         **** 		write_data(0x28);
  97               		.loc 1 49 3 is_stmt 0 view .LVU28
  98 0050 8BB9      		out 0xb,r24
  99               		.loc 1 49 3 is_stmt 1 view .LVU29
 100 0052 2B98      		cbi 0x5,3
 101               		.loc 1 49 3 view .LVU30
 102 0054 2B9A      		sbi 0x5,3
 103               	.L4:
 104               		.loc 1 49 19 discriminator 1 view .LVU31
  50:lcd.c         **** 	}
  51:lcd.c         **** 	write_cmd(COLUMN_ADDRESS_SET);
 105               		.loc 1 51 2 discriminator 1 view .LVU32
 106 0056 2C98      		cbi 0x5,4
 107               		.loc 1 51 2 discriminator 1 view .LVU33
 108 0058 8AE2      		ldi r24,lo8(42)
 109 005a 8BB9      		out 0xb,r24
 110               		.loc 1 51 2 discriminator 1 view .LVU34
 111 005c 2B98      		cbi 0x5,3
 112               		.loc 1 51 2 discriminator 1 view .LVU35
 113 005e 2B9A      		sbi 0x5,3
 114               		.loc 1 51 2 discriminator 1 view .LVU36
 115 0060 2C9A      		sbi 0x5,4
 116               		.loc 1 51 31 discriminator 1 view .LVU37
  52:lcd.c         **** 	write_data16(0);
 117               		.loc 1 52 2 discriminator 1 view .LVU38
 118 0062 1BB8      		out 0xb,__zero_reg__
 119               		.loc 1 52 2 discriminator 1 view .LVU39
GAS LISTING /var/folders/b3/c8k8_7z16sxb5qhkpvrmv5jh0000gn/T//ccVKyh5f.s 			page 4


 120 0064 2B98      		cbi 0x5,3
 121               		.loc 1 52 2 discriminator 1 view .LVU40
 122 0066 2B9A      		sbi 0x5,3
 123               		.loc 1 52 2 discriminator 1 view .LVU41
 124               		.loc 1 52 2 discriminator 1 view .LVU42
 125 0068 1BB8      		out 0xb,__zero_reg__
 126               		.loc 1 52 2 discriminator 1 view .LVU43
 127 006a 2B98      		cbi 0x5,3
 128               		.loc 1 52 2 discriminator 1 view .LVU44
 129 006c 2B9A      		sbi 0x5,3
 130               		.loc 1 52 2 discriminator 1 view .LVU45
 131               		.loc 1 52 17 discriminator 1 view .LVU46
  53:lcd.c         **** 	write_data16(display.width-1);
 132               		.loc 1 53 2 discriminator 1 view .LVU47
 133 006e 8091 0000 		lds r24,display
 134 0072 9091 0000 		lds r25,display+1
 135 0076 0197      		sbiw r24,1
 136 0078 9BB9      		out 0xb,r25
 137               		.loc 1 53 2 discriminator 1 view .LVU48
 138 007a 2B98      		cbi 0x5,3
 139               		.loc 1 53 2 discriminator 1 view .LVU49
 140 007c 2B9A      		sbi 0x5,3
 141               		.loc 1 53 2 discriminator 1 view .LVU50
 142               		.loc 1 53 2 discriminator 1 view .LVU51
 143 007e 8091 0000 		lds r24,display
 144 0082 8150      		subi r24,lo8(-(-1))
 145 0084 8BB9      		out 0xb,r24
 146               		.loc 1 53 2 discriminator 1 view .LVU52
 147 0086 2B98      		cbi 0x5,3
 148               		.loc 1 53 2 discriminator 1 view .LVU53
 149 0088 2B9A      		sbi 0x5,3
 150               		.loc 1 53 2 discriminator 1 view .LVU54
 151               		.loc 1 53 31 discriminator 1 view .LVU55
  54:lcd.c         **** 	write_cmd(PAGE_ADDRESS_SET);
 152               		.loc 1 54 2 discriminator 1 view .LVU56
 153 008a 2C98      		cbi 0x5,4
 154               		.loc 1 54 2 discriminator 1 view .LVU57
 155 008c 8BE2      		ldi r24,lo8(43)
 156 008e 8BB9      		out 0xb,r24
 157               		.loc 1 54 2 discriminator 1 view .LVU58
 158 0090 2B98      		cbi 0x5,3
 159               		.loc 1 54 2 discriminator 1 view .LVU59
 160 0092 2B9A      		sbi 0x5,3
 161               		.loc 1 54 2 discriminator 1 view .LVU60
 162 0094 2C9A      		sbi 0x5,4
 163               		.loc 1 54 29 discriminator 1 view .LVU61
  55:lcd.c         **** 	write_data16(0);
 164               		.loc 1 55 2 discriminator 1 view .LVU62
 165 0096 1BB8      		out 0xb,__zero_reg__
 166               		.loc 1 55 2 discriminator 1 view .LVU63
 167 0098 2B98      		cbi 0x5,3
 168               		.loc 1 55 2 discriminator 1 view .LVU64
 169 009a 2B9A      		sbi 0x5,3
 170               		.loc 1 55 2 discriminator 1 view .LVU65
 171               		.loc 1 55 2 discriminator 1 view .LVU66
 172 009c 1BB8      		out 0xb,__zero_reg__
 173               		.loc 1 55 2 discriminator 1 view .LVU67
GAS LISTING /var/folders/b3/c8k8_7z16sxb5qhkpvrmv5jh0000gn/T//ccVKyh5f.s 			page 5


 174 009e 2B98      		cbi 0x5,3
 175               		.loc 1 55 2 discriminator 1 view .LVU68
 176 00a0 2B9A      		sbi 0x5,3
 177               		.loc 1 55 2 discriminator 1 view .LVU69
 178               		.loc 1 55 17 discriminator 1 view .LVU70
  56:lcd.c         **** 	write_data16(display.height-1);
 179               		.loc 1 56 2 discriminator 1 view .LVU71
 180 00a2 8091 0000 		lds r24,display+2
 181 00a6 9091 0000 		lds r25,display+2+1
 182 00aa 0197      		sbiw r24,1
 183 00ac 9BB9      		out 0xb,r25
 184               		.loc 1 56 2 discriminator 1 view .LVU72
 185 00ae 2B98      		cbi 0x5,3
 186               		.loc 1 56 2 discriminator 1 view .LVU73
 187 00b0 2B9A      		sbi 0x5,3
 188               		.loc 1 56 2 discriminator 1 view .LVU74
 189               		.loc 1 56 2 discriminator 1 view .LVU75
 190 00b2 8091 0000 		lds r24,display+2
 191 00b6 8150      		subi r24,lo8(-(-1))
 192 00b8 8BB9      		out 0xb,r24
 193               		.loc 1 56 2 discriminator 1 view .LVU76
 194 00ba 2B98      		cbi 0x5,3
 195               		.loc 1 56 2 discriminator 1 view .LVU77
 196 00bc 2B9A      		sbi 0x5,3
 197               		.loc 1 56 2 discriminator 1 view .LVU78
 198               		.loc 1 56 32 discriminator 1 view .LVU79
 199               	/* epilogue start */
  57:lcd.c         **** }
 200               		.loc 1 57 1 is_stmt 0 discriminator 1 view .LVU80
 201 00be 0895      		ret
 202               	.L3:
  36:lcd.c         **** 		display.width = LCDHEIGHT;
 203               		.loc 1 36 7 is_stmt 1 view .LVU81
  36:lcd.c         **** 		display.width = LCDHEIGHT;
 204               		.loc 1 36 10 is_stmt 0 view .LVU82
 205 00c0 2130      		cpi r18,1
 206 00c2 3105      		cpc r19,__zero_reg__
 207 00c4 01F4      		brne .L5
  37:lcd.c         **** 		display.height = LCDWIDTH;
 208               		.loc 1 37 3 is_stmt 1 view .LVU83
  37:lcd.c         **** 		display.height = LCDWIDTH;
 209               		.loc 1 37 17 is_stmt 0 view .LVU84
 210 00c6 80E4      		ldi r24,lo8(64)
 211 00c8 91E0      		ldi r25,lo8(1)
 212 00ca 9093 0000 		sts display+1,r25
 213 00ce 8093 0000 		sts display,r24
  38:lcd.c         **** 		write_data(0xE8);
 214               		.loc 1 38 3 is_stmt 1 view .LVU85
  38:lcd.c         **** 		write_data(0xE8);
 215               		.loc 1 38 18 is_stmt 0 view .LVU86
 216 00d2 80EF      		ldi r24,lo8(-16)
 217 00d4 90E0      		ldi r25,0
 218 00d6 9093 0000 		sts display+2+1,r25
 219 00da 8093 0000 		sts display+2,r24
  39:lcd.c         **** 	}
 220               		.loc 1 39 3 is_stmt 1 view .LVU87
 221 00de 88EE      		ldi r24,lo8(-24)
GAS LISTING /var/folders/b3/c8k8_7z16sxb5qhkpvrmv5jh0000gn/T//ccVKyh5f.s 			page 6


 222 00e0 00C0      		rjmp .L7
 223               	.L5:
  41:lcd.c         **** 		display.width = LCDWIDTH;
 224               		.loc 1 41 7 view .LVU88
  41:lcd.c         **** 		display.width = LCDWIDTH;
 225               		.loc 1 41 10 is_stmt 0 view .LVU89
 226 00e2 2230      		cpi r18,2
 227 00e4 3105      		cpc r19,__zero_reg__
 228 00e6 01F4      		brne .L6
  42:lcd.c         **** 		display.height = LCDHEIGHT;
 229               		.loc 1 42 3 is_stmt 1 view .LVU90
  42:lcd.c         **** 		display.height = LCDHEIGHT;
 230               		.loc 1 42 17 is_stmt 0 view .LVU91
 231 00e8 80EF      		ldi r24,lo8(-16)
 232 00ea 90E0      		ldi r25,0
 233 00ec 9093 0000 		sts display+1,r25
 234 00f0 8093 0000 		sts display,r24
  43:lcd.c         **** 		write_data(0x88);
 235               		.loc 1 43 3 is_stmt 1 view .LVU92
  43:lcd.c         **** 		write_data(0x88);
 236               		.loc 1 43 18 is_stmt 0 view .LVU93
 237 00f4 80E4      		ldi r24,lo8(64)
 238 00f6 91E0      		ldi r25,lo8(1)
 239 00f8 9093 0000 		sts display+2+1,r25
 240 00fc 8093 0000 		sts display+2,r24
  44:lcd.c         **** 	}
 241               		.loc 1 44 3 is_stmt 1 view .LVU94
 242 0100 88E8      		ldi r24,lo8(-120)
 243 0102 00C0      		rjmp .L7
 244               	.L6:
  46:lcd.c         **** 		display.width = LCDHEIGHT;
 245               		.loc 1 46 7 view .LVU95
  46:lcd.c         **** 		display.width = LCDHEIGHT;
 246               		.loc 1 46 10 is_stmt 0 view .LVU96
 247 0104 2330      		cpi r18,3
 248 0106 3105      		cpc r19,__zero_reg__
 249 0108 01F0      		breq .+2
 250 010a 00C0      		rjmp .L4
  47:lcd.c         **** 		display.height = LCDWIDTH;
 251               		.loc 1 47 3 is_stmt 1 view .LVU97
  47:lcd.c         **** 		display.height = LCDWIDTH;
 252               		.loc 1 47 17 is_stmt 0 view .LVU98
 253 010c 80E4      		ldi r24,lo8(64)
 254 010e 91E0      		ldi r25,lo8(1)
 255 0110 9093 0000 		sts display+1,r25
 256 0114 8093 0000 		sts display,r24
  48:lcd.c         **** 		write_data(0x28);
 257               		.loc 1 48 3 is_stmt 1 view .LVU99
  48:lcd.c         **** 		write_data(0x28);
 258               		.loc 1 48 18 is_stmt 0 view .LVU100
 259 0118 80EF      		ldi r24,lo8(-16)
 260 011a 90E0      		ldi r25,0
 261 011c 9093 0000 		sts display+2+1,r25
 262 0120 8093 0000 		sts display+2,r24
  49:lcd.c         **** 	}
 263               		.loc 1 49 3 is_stmt 1 view .LVU101
 264 0124 88E2      		ldi r24,lo8(40)
GAS LISTING /var/folders/b3/c8k8_7z16sxb5qhkpvrmv5jh0000gn/T//ccVKyh5f.s 			page 7


 265 0126 00C0      		rjmp .L7
 266               		.cfi_endproc
 267               	.LFE2:
 268               		.size	set_orientation, .-set_orientation
 269               	.global	fill_rectangle
 270               		.type	fill_rectangle, @function
 271               	fill_rectangle:
 272               	.LVL3:
 273               	.LFB3:
  58:lcd.c         **** 
  59:lcd.c         **** void fill_rectangle(rectangle r, uint16_t col)
  60:lcd.c         **** {
 274               		.loc 1 60 1 view -0
 275               		.cfi_startproc
 276               		.loc 1 60 1 is_stmt 0 view .LVU103
 277 0128 0F93      		push r16
 278               		.cfi_def_cfa_offset 3
 279               		.cfi_offset 16, -2
 280 012a 1F93      		push r17
 281               		.cfi_def_cfa_offset 4
 282               		.cfi_offset 17, -3
 283 012c CF93      		push r28
 284               		.cfi_def_cfa_offset 5
 285               		.cfi_offset 28, -4
 286 012e DF93      		push r29
 287               		.cfi_def_cfa_offset 6
 288               		.cfi_offset 29, -5
 289 0130 CDB7      		in r28,__SP_L__
 290 0132 DEB7      		in r29,__SP_H__
 291               		.cfi_def_cfa_register 28
 292 0134 2897      		sbiw r28,8
 293               		.cfi_def_cfa_offset 14
 294 0136 0FB6      		in __tmp_reg__,__SREG__
 295 0138 F894      		cli
 296 013a DEBF      		out __SP_H__,r29
 297 013c 0FBE      		out __SREG__,__tmp_reg__
 298 013e CDBF      		out __SP_L__,r28
 299               	/* prologue: function */
 300               	/* frame size = 8 */
 301               	/* stack size = 12 */
 302               	.L__stack_usage = 12
 303 0140 2983      		std Y+1,r18
 304 0142 3A83      		std Y+2,r19
 305 0144 4B83      		std Y+3,r20
 306 0146 5C83      		std Y+4,r21
 307 0148 262F      		mov r18,r22
 308 014a 6D83      		std Y+5,r22
 309 014c 372F      		mov r19,r23
 310 014e 7E83      		std Y+6,r23
 311 0150 8F83      		std Y+7,r24
 312 0152 9887      		std Y+8,r25
 313 0154 8981      		ldd r24,Y+1
 314 0156 9A81      		ldd r25,Y+2
 315               	.LVL4:
 316               		.loc 1 60 1 view .LVU104
 317 0158 4B81      		ldd r20,Y+3
 318 015a 5C81      		ldd r21,Y+4
GAS LISTING /var/folders/b3/c8k8_7z16sxb5qhkpvrmv5jh0000gn/T//ccVKyh5f.s 			page 8


 319               	.LVL5:
 320               		.loc 1 60 1 view .LVU105
 321 015c B901      		movw r22,r18
 322               	.LVL6:
 323               		.loc 1 60 1 view .LVU106
 324 015e EF81      		ldd r30,Y+7
 325 0160 F885      		ldd r31,Y+8
 326               	.LVL7:
  61:lcd.c         **** 	uint16_t x, y;
 327               		.loc 1 61 2 is_stmt 1 view .LVU107
  62:lcd.c         **** 	write_cmd(COLUMN_ADDRESS_SET);
 328               		.loc 1 62 2 view .LVU108
 329 0162 2C98      		cbi 0x5,4
 330               		.loc 1 62 2 view .LVU109
 331 0164 2AE2      		ldi r18,lo8(42)
 332 0166 2BB9      		out 0xb,r18
 333               		.loc 1 62 2 view .LVU110
 334 0168 2B98      		cbi 0x5,3
 335               		.loc 1 62 2 view .LVU111
 336 016a 2B9A      		sbi 0x5,3
 337               		.loc 1 62 2 view .LVU112
 338 016c 2C9A      		sbi 0x5,4
 339               		.loc 1 62 31 view .LVU113
  63:lcd.c         **** 	write_data16(r.left);
 340               		.loc 1 63 2 view .LVU114
 341 016e 9BB9      		out 0xb,r25
 342               		.loc 1 63 2 view .LVU115
 343 0170 2B98      		cbi 0x5,3
 344               		.loc 1 63 2 view .LVU116
 345 0172 2B9A      		sbi 0x5,3
 346               		.loc 1 63 2 view .LVU117
 347               		.loc 1 63 2 view .LVU118
 348 0174 8BB9      		out 0xb,r24
 349               		.loc 1 63 2 view .LVU119
 350 0176 2B98      		cbi 0x5,3
 351               		.loc 1 63 2 view .LVU120
 352 0178 2B9A      		sbi 0x5,3
 353               		.loc 1 63 2 view .LVU121
 354               		.loc 1 63 22 view .LVU122
  64:lcd.c         **** 	write_data16(r.right);
 355               		.loc 1 64 2 view .LVU123
 356 017a 5BB9      		out 0xb,r21
 357               		.loc 1 64 2 view .LVU124
 358 017c 2B98      		cbi 0x5,3
 359               		.loc 1 64 2 view .LVU125
 360 017e 2B9A      		sbi 0x5,3
 361               		.loc 1 64 2 view .LVU126
 362               		.loc 1 64 2 view .LVU127
 363 0180 4BB9      		out 0xb,r20
 364               		.loc 1 64 2 view .LVU128
 365 0182 2B98      		cbi 0x5,3
 366               		.loc 1 64 2 view .LVU129
 367 0184 2B9A      		sbi 0x5,3
 368               		.loc 1 64 2 view .LVU130
 369               		.loc 1 64 23 view .LVU131
  65:lcd.c         **** 	write_cmd(PAGE_ADDRESS_SET);
 370               		.loc 1 65 2 view .LVU132
GAS LISTING /var/folders/b3/c8k8_7z16sxb5qhkpvrmv5jh0000gn/T//ccVKyh5f.s 			page 9


 371 0186 2C98      		cbi 0x5,4
 372               		.loc 1 65 2 view .LVU133
 373 0188 2BE2      		ldi r18,lo8(43)
 374 018a 2BB9      		out 0xb,r18
 375               		.loc 1 65 2 view .LVU134
 376 018c 2B98      		cbi 0x5,3
 377               		.loc 1 65 2 view .LVU135
 378 018e 2B9A      		sbi 0x5,3
 379               		.loc 1 65 2 view .LVU136
 380 0190 2C9A      		sbi 0x5,4
 381               		.loc 1 65 29 view .LVU137
  66:lcd.c         **** 	write_data16(r.top);
 382               		.loc 1 66 2 view .LVU138
 383 0192 7BB9      		out 0xb,r23
 384               		.loc 1 66 2 view .LVU139
 385 0194 2B98      		cbi 0x5,3
 386               		.loc 1 66 2 view .LVU140
 387 0196 2B9A      		sbi 0x5,3
 388               		.loc 1 66 2 view .LVU141
 389               		.loc 1 66 2 view .LVU142
 390 0198 6BB9      		out 0xb,r22
 391               		.loc 1 66 2 view .LVU143
 392 019a 2B98      		cbi 0x5,3
 393               		.loc 1 66 2 view .LVU144
 394 019c 2B9A      		sbi 0x5,3
 395               		.loc 1 66 2 view .LVU145
 396               		.loc 1 66 21 view .LVU146
  67:lcd.c         **** 	write_data16(r.bottom);
 397               		.loc 1 67 2 view .LVU147
 398 019e FBB9      		out 0xb,r31
 399               		.loc 1 67 2 view .LVU148
 400 01a0 2B98      		cbi 0x5,3
 401               		.loc 1 67 2 view .LVU149
 402 01a2 2B9A      		sbi 0x5,3
 403               		.loc 1 67 2 view .LVU150
 404               		.loc 1 67 2 view .LVU151
 405 01a4 EBB9      		out 0xb,r30
 406               		.loc 1 67 2 view .LVU152
 407 01a6 2B98      		cbi 0x5,3
 408               		.loc 1 67 2 view .LVU153
 409 01a8 2B9A      		sbi 0x5,3
 410               		.loc 1 67 2 view .LVU154
 411               		.loc 1 67 24 view .LVU155
  68:lcd.c         **** 	write_cmd(MEMORY_WRITE);
 412               		.loc 1 68 2 view .LVU156
 413 01aa 2C98      		cbi 0x5,4
 414               		.loc 1 68 2 view .LVU157
 415 01ac 2CE2      		ldi r18,lo8(44)
 416 01ae 2BB9      		out 0xb,r18
 417               		.loc 1 68 2 view .LVU158
 418 01b0 2B98      		cbi 0x5,3
 419               		.loc 1 68 2 view .LVU159
 420 01b2 2B9A      		sbi 0x5,3
 421               		.loc 1 68 2 view .LVU160
 422 01b4 2C9A      		sbi 0x5,4
 423               		.loc 1 68 25 view .LVU161
  69:lcd.c         **** 	for(x=r.left; x<=r.right; x++)
GAS LISTING /var/folders/b3/c8k8_7z16sxb5qhkpvrmv5jh0000gn/T//ccVKyh5f.s 			page 10


 424               		.loc 1 69 2 view .LVU162
 425               	.LVL8:
 426               	.L9:
 427               		.loc 1 69 16 discriminator 1 view .LVU163
 428               		.loc 1 69 2 is_stmt 0 discriminator 1 view .LVU164
 429 01b6 4817      		cp r20,r24
 430 01b8 5907      		cpc r21,r25
 431 01ba 00F4      		brsh .L12
 432               	/* epilogue start */
  70:lcd.c         **** 		for(y=r.top; y<=r.bottom; y++)
  71:lcd.c         **** 			write_data16(col);
  72:lcd.c         **** }
 433               		.loc 1 72 1 view .LVU165
 434 01bc 2896      		adiw r28,8
 435 01be 0FB6      		in __tmp_reg__,__SREG__
 436 01c0 F894      		cli
 437 01c2 DEBF      		out __SP_H__,r29
 438 01c4 0FBE      		out __SREG__,__tmp_reg__
 439 01c6 CDBF      		out __SP_L__,r28
 440 01c8 DF91      		pop r29
 441 01ca CF91      		pop r28
 442 01cc 1F91      		pop r17
 443 01ce 0F91      		pop r16
 444               	.LVL9:
 445               		.loc 1 72 1 view .LVU166
 446 01d0 0895      		ret
 447               	.LVL10:
 448               	.L10:
  71:lcd.c         **** }
 449               		.loc 1 71 4 is_stmt 1 discriminator 3 view .LVU167
 450 01d2 1BB9      		out 0xb,r17
  71:lcd.c         **** }
 451               		.loc 1 71 4 discriminator 3 view .LVU168
 452 01d4 2B98      		cbi 0x5,3
  71:lcd.c         **** }
 453               		.loc 1 71 4 discriminator 3 view .LVU169
 454 01d6 2B9A      		sbi 0x5,3
  71:lcd.c         **** }
 455               		.loc 1 71 4 discriminator 3 view .LVU170
  71:lcd.c         **** }
 456               		.loc 1 71 4 discriminator 3 view .LVU171
 457 01d8 0BB9      		out 0xb,r16
  71:lcd.c         **** }
 458               		.loc 1 71 4 discriminator 3 view .LVU172
 459 01da 2B98      		cbi 0x5,3
  71:lcd.c         **** }
 460               		.loc 1 71 4 discriminator 3 view .LVU173
 461 01dc 2B9A      		sbi 0x5,3
  71:lcd.c         **** }
 462               		.loc 1 71 4 discriminator 3 view .LVU174
  70:lcd.c         **** 		for(y=r.top; y<=r.bottom; y++)
 463               		.loc 1 70 29 discriminator 3 view .LVU175
  70:lcd.c         **** 		for(y=r.top; y<=r.bottom; y++)
 464               		.loc 1 70 30 is_stmt 0 discriminator 3 view .LVU176
 465 01de 2F5F      		subi r18,-1
 466 01e0 3F4F      		sbci r19,-1
 467               	.LVL11:
GAS LISTING /var/folders/b3/c8k8_7z16sxb5qhkpvrmv5jh0000gn/T//ccVKyh5f.s 			page 11


 468               	.L11:
  70:lcd.c         **** 		for(y=r.top; y<=r.bottom; y++)
 469               		.loc 1 70 16 is_stmt 1 discriminator 1 view .LVU177
  70:lcd.c         **** 		for(y=r.top; y<=r.bottom; y++)
 470               		.loc 1 70 3 is_stmt 0 discriminator 1 view .LVU178
 471 01e2 E217      		cp r30,r18
 472 01e4 F307      		cpc r31,r19
 473 01e6 00F4      		brsh .L10
  69:lcd.c         **** 	for(x=r.left; x<=r.right; x++)
 474               		.loc 1 69 28 is_stmt 1 discriminator 2 view .LVU179
  69:lcd.c         **** 	for(x=r.left; x<=r.right; x++)
 475               		.loc 1 69 29 is_stmt 0 discriminator 2 view .LVU180
 476 01e8 0196      		adiw r24,1
 477               	.LVL12:
  69:lcd.c         **** 	for(x=r.left; x<=r.right; x++)
 478               		.loc 1 69 29 discriminator 2 view .LVU181
 479 01ea 00C0      		rjmp .L9
 480               	.LVL13:
 481               	.L12:
  70:lcd.c         **** 		for(y=r.top; y<=r.bottom; y++)
 482               		.loc 1 70 8 view .LVU182
 483 01ec 9B01      		movw r18,r22
 484 01ee 00C0      		rjmp .L11
 485               		.cfi_endproc
 486               	.LFE3:
 487               		.size	fill_rectangle, .-fill_rectangle
 488               	.global	fill_rectangle_indexed
 489               		.type	fill_rectangle_indexed, @function
 490               	fill_rectangle_indexed:
 491               	.LVL14:
 492               	.LFB4:
  73:lcd.c         **** 
  74:lcd.c         **** void fill_rectangle_indexed(rectangle r, uint16_t* col)
  75:lcd.c         **** {
 493               		.loc 1 75 1 is_stmt 1 view -0
 494               		.cfi_startproc
 495               		.loc 1 75 1 is_stmt 0 view .LVU184
 496 01f0 0F93      		push r16
 497               		.cfi_def_cfa_offset 3
 498               		.cfi_offset 16, -2
 499 01f2 1F93      		push r17
 500               		.cfi_def_cfa_offset 4
 501               		.cfi_offset 17, -3
 502 01f4 CF93      		push r28
 503               		.cfi_def_cfa_offset 5
 504               		.cfi_offset 28, -4
 505 01f6 DF93      		push r29
 506               		.cfi_def_cfa_offset 6
 507               		.cfi_offset 29, -5
 508 01f8 CDB7      		in r28,__SP_L__
 509 01fa DEB7      		in r29,__SP_H__
 510               		.cfi_def_cfa_register 28
 511 01fc 2897      		sbiw r28,8
 512               		.cfi_def_cfa_offset 14
 513 01fe 0FB6      		in __tmp_reg__,__SREG__
 514 0200 F894      		cli
 515 0202 DEBF      		out __SP_H__,r29
GAS LISTING /var/folders/b3/c8k8_7z16sxb5qhkpvrmv5jh0000gn/T//ccVKyh5f.s 			page 12


 516 0204 0FBE      		out __SREG__,__tmp_reg__
 517 0206 CDBF      		out __SP_L__,r28
 518               	/* prologue: function */
 519               	/* frame size = 8 */
 520               	/* stack size = 12 */
 521               	.L__stack_usage = 12
 522 0208 2983      		std Y+1,r18
 523 020a 3A83      		std Y+2,r19
 524 020c 4B83      		std Y+3,r20
 525 020e 5C83      		std Y+4,r21
 526 0210 6D83      		std Y+5,r22
 527 0212 7E83      		std Y+6,r23
 528 0214 8F83      		std Y+7,r24
 529 0216 9887      		std Y+8,r25
 530 0218 2981      		ldd r18,Y+1
 531 021a 3A81      		ldd r19,Y+2
 532               	.LVL15:
 533               		.loc 1 75 1 view .LVU185
 534 021c AB81      		ldd r26,Y+3
 535 021e BC81      		ldd r27,Y+4
 536               	.LVL16:
 537               		.loc 1 75 1 view .LVU186
 538 0220 4F81      		ldd r20,Y+7
 539 0222 5885      		ldd r21,Y+8
 540               	.LVL17:
  76:lcd.c         **** 	uint16_t x, y;
 541               		.loc 1 76 2 is_stmt 1 view .LVU187
  77:lcd.c         **** 	write_cmd(COLUMN_ADDRESS_SET);
 542               		.loc 1 77 2 view .LVU188
 543 0224 2C98      		cbi 0x5,4
 544               		.loc 1 77 2 view .LVU189
 545 0226 8AE2      		ldi r24,lo8(42)
 546 0228 8BB9      		out 0xb,r24
 547               		.loc 1 77 2 view .LVU190
 548 022a 2B98      		cbi 0x5,3
 549               		.loc 1 77 2 view .LVU191
 550 022c 2B9A      		sbi 0x5,3
 551               		.loc 1 77 2 view .LVU192
 552 022e 2C9A      		sbi 0x5,4
 553               		.loc 1 77 31 view .LVU193
  78:lcd.c         **** 	write_data16(r.left);
 554               		.loc 1 78 2 view .LVU194
 555 0230 3BB9      		out 0xb,r19
 556               		.loc 1 78 2 view .LVU195
 557 0232 2B98      		cbi 0x5,3
 558               		.loc 1 78 2 view .LVU196
 559 0234 2B9A      		sbi 0x5,3
 560               		.loc 1 78 2 view .LVU197
 561               		.loc 1 78 2 view .LVU198
 562 0236 2BB9      		out 0xb,r18
 563               		.loc 1 78 2 view .LVU199
 564 0238 2B98      		cbi 0x5,3
 565               		.loc 1 78 2 view .LVU200
 566 023a 2B9A      		sbi 0x5,3
 567               		.loc 1 78 2 view .LVU201
 568               		.loc 1 78 22 view .LVU202
  79:lcd.c         **** 	write_data16(r.right);
GAS LISTING /var/folders/b3/c8k8_7z16sxb5qhkpvrmv5jh0000gn/T//ccVKyh5f.s 			page 13


 569               		.loc 1 79 2 view .LVU203
 570 023c BBB9      		out 0xb,r27
 571               		.loc 1 79 2 view .LVU204
 572 023e 2B98      		cbi 0x5,3
 573               		.loc 1 79 2 view .LVU205
 574 0240 2B9A      		sbi 0x5,3
 575               		.loc 1 79 2 view .LVU206
 576               		.loc 1 79 2 view .LVU207
 577 0242 ABB9      		out 0xb,r26
 578               		.loc 1 79 2 view .LVU208
 579 0244 2B98      		cbi 0x5,3
 580               		.loc 1 79 2 view .LVU209
 581 0246 2B9A      		sbi 0x5,3
 582               		.loc 1 79 2 view .LVU210
 583               		.loc 1 79 23 view .LVU211
  80:lcd.c         **** 	write_cmd(PAGE_ADDRESS_SET);
 584               		.loc 1 80 2 view .LVU212
 585 0248 2C98      		cbi 0x5,4
 586               		.loc 1 80 2 view .LVU213
 587 024a 8BE2      		ldi r24,lo8(43)
 588 024c 8BB9      		out 0xb,r24
 589               		.loc 1 80 2 view .LVU214
 590 024e 2B98      		cbi 0x5,3
 591               		.loc 1 80 2 view .LVU215
 592 0250 2B9A      		sbi 0x5,3
 593               		.loc 1 80 2 view .LVU216
 594 0252 2C9A      		sbi 0x5,4
 595               		.loc 1 80 29 view .LVU217
  81:lcd.c         **** 	write_data16(r.top);
 596               		.loc 1 81 2 view .LVU218
 597 0254 7BB9      		out 0xb,r23
 598               		.loc 1 81 2 view .LVU219
 599 0256 2B98      		cbi 0x5,3
 600               		.loc 1 81 2 view .LVU220
 601 0258 2B9A      		sbi 0x5,3
 602               		.loc 1 81 2 view .LVU221
 603               		.loc 1 81 2 view .LVU222
 604 025a 6BB9      		out 0xb,r22
 605               		.loc 1 81 2 view .LVU223
 606 025c 2B98      		cbi 0x5,3
 607               		.loc 1 81 2 view .LVU224
 608 025e 2B9A      		sbi 0x5,3
 609               		.loc 1 81 2 view .LVU225
 610               		.loc 1 81 21 view .LVU226
  82:lcd.c         **** 	write_data16(r.bottom);
 611               		.loc 1 82 2 view .LVU227
 612 0260 5BB9      		out 0xb,r21
 613               		.loc 1 82 2 view .LVU228
 614 0262 2B98      		cbi 0x5,3
 615               		.loc 1 82 2 view .LVU229
 616 0264 2B9A      		sbi 0x5,3
 617               		.loc 1 82 2 view .LVU230
 618               		.loc 1 82 2 view .LVU231
 619 0266 4BB9      		out 0xb,r20
 620               		.loc 1 82 2 view .LVU232
 621 0268 2B98      		cbi 0x5,3
 622               		.loc 1 82 2 view .LVU233
GAS LISTING /var/folders/b3/c8k8_7z16sxb5qhkpvrmv5jh0000gn/T//ccVKyh5f.s 			page 14


 623 026a 2B9A      		sbi 0x5,3
 624               		.loc 1 82 2 view .LVU234
 625               		.loc 1 82 24 view .LVU235
  83:lcd.c         **** 	write_cmd(MEMORY_WRITE);
 626               		.loc 1 83 2 view .LVU236
 627 026c 2C98      		cbi 0x5,4
 628               		.loc 1 83 2 view .LVU237
 629 026e 8CE2      		ldi r24,lo8(44)
 630 0270 8BB9      		out 0xb,r24
 631               		.loc 1 83 2 view .LVU238
 632 0272 2B98      		cbi 0x5,3
 633               		.loc 1 83 2 view .LVU239
 634 0274 2B9A      		sbi 0x5,3
 635               		.loc 1 83 2 view .LVU240
 636 0276 2C9A      		sbi 0x5,4
 637               		.loc 1 83 25 view .LVU241
  84:lcd.c         **** 	for(x=r.left; x<=r.right; x++)
 638               		.loc 1 84 2 view .LVU242
 639               	.LVL18:
 640               	.L14:
 641               		.loc 1 84 16 discriminator 1 view .LVU243
 642               		.loc 1 84 2 is_stmt 0 discriminator 1 view .LVU244
 643 0278 A217      		cp r26,r18
 644 027a B307      		cpc r27,r19
 645 027c 00F0      		brlo .L13
 646               		.loc 1 84 2 discriminator 1 view .LVU245
 647 027e F801      		movw r30,r16
  85:lcd.c         **** 		for(y=r.top; y<=r.bottom; y++)
 648               		.loc 1 85 8 view .LVU246
 649 0280 CB01      		movw r24,r22
 650 0282 00C0      		rjmp .L17
 651               	.LVL19:
 652               	.L15:
  86:lcd.c         **** 			write_data16(*col++);
 653               		.loc 1 86 4 is_stmt 1 discriminator 3 view .LVU247
 654               		.loc 1 86 4 is_stmt 0 discriminator 3 view .LVU248
 655 0284 1181      		ldd r17,Z+1
 656 0286 1BB9      		out 0xb,r17
 657               		.loc 1 86 4 is_stmt 1 discriminator 3 view .LVU249
 658 0288 2B98      		cbi 0x5,3
 659               		.loc 1 86 4 discriminator 3 view .LVU250
 660 028a 2B9A      		sbi 0x5,3
 661               		.loc 1 86 4 discriminator 3 view .LVU251
 662               		.loc 1 86 4 discriminator 3 view .LVU252
 663               	.LVL20:
 664               		.loc 1 86 4 is_stmt 0 discriminator 3 view .LVU253
 665 028c 1281      		ldd r17,Z+2
 666 028e 1BB9      		out 0xb,r17
 667               		.loc 1 86 4 is_stmt 1 discriminator 3 view .LVU254
 668 0290 2B98      		cbi 0x5,3
 669               		.loc 1 86 4 discriminator 3 view .LVU255
 670 0292 2B9A      		sbi 0x5,3
 671               		.loc 1 86 4 discriminator 3 view .LVU256
  85:lcd.c         **** 		for(y=r.top; y<=r.bottom; y++)
 672               		.loc 1 85 29 discriminator 3 view .LVU257
  85:lcd.c         **** 		for(y=r.top; y<=r.bottom; y++)
 673               		.loc 1 85 30 is_stmt 0 discriminator 3 view .LVU258
GAS LISTING /var/folders/b3/c8k8_7z16sxb5qhkpvrmv5jh0000gn/T//ccVKyh5f.s 			page 15


 674 0294 0196      		adiw r24,1
 675               	.LVL21:
  85:lcd.c         **** 		for(y=r.top; y<=r.bottom; y++)
 676               		.loc 1 85 30 discriminator 3 view .LVU259
 677 0296 3496      		adiw r30,4
 678               	.LVL22:
 679               	.L17:
  85:lcd.c         **** 		for(y=r.top; y<=r.bottom; y++)
 680               		.loc 1 85 30 discriminator 3 view .LVU260
 681 0298 8F01      		movw r16,r30
 682               	.LVL23:
  85:lcd.c         **** 		for(y=r.top; y<=r.bottom; y++)
 683               		.loc 1 85 16 is_stmt 1 discriminator 1 view .LVU261
  85:lcd.c         **** 		for(y=r.top; y<=r.bottom; y++)
 684               		.loc 1 85 3 is_stmt 0 discriminator 1 view .LVU262
 685 029a 4817      		cp r20,r24
 686 029c 5907      		cpc r21,r25
 687 029e 00F4      		brsh .L15
  84:lcd.c         **** 	for(x=r.left; x<=r.right; x++)
 688               		.loc 1 84 28 is_stmt 1 discriminator 2 view .LVU263
  84:lcd.c         **** 	for(x=r.left; x<=r.right; x++)
 689               		.loc 1 84 29 is_stmt 0 discriminator 2 view .LVU264
 690 02a0 2F5F      		subi r18,-1
 691 02a2 3F4F      		sbci r19,-1
 692               	.LVL24:
  84:lcd.c         **** 	for(x=r.left; x<=r.right; x++)
 693               		.loc 1 84 29 discriminator 2 view .LVU265
 694 02a4 00C0      		rjmp .L14
 695               	.LVL25:
 696               	.L13:
 697               	/* epilogue start */
  87:lcd.c         **** }
 698               		.loc 1 87 1 view .LVU266
 699 02a6 2896      		adiw r28,8
 700 02a8 0FB6      		in __tmp_reg__,__SREG__
 701 02aa F894      		cli
 702 02ac DEBF      		out __SP_H__,r29
 703 02ae 0FBE      		out __SREG__,__tmp_reg__
 704 02b0 CDBF      		out __SP_L__,r28
 705 02b2 DF91      		pop r29
 706 02b4 CF91      		pop r28
 707 02b6 1F91      		pop r17
 708               	.LVL26:
 709               		.loc 1 87 1 view .LVU267
 710 02b8 0F91      		pop r16
 711               		.loc 1 87 1 view .LVU268
 712 02ba 0895      		ret
 713               		.cfi_endproc
 714               	.LFE4:
 715               		.size	fill_rectangle_indexed, .-fill_rectangle_indexed
 716               	.global	clear_screen
 717               		.type	clear_screen, @function
 718               	clear_screen:
 719               	.LFB5:
  88:lcd.c         **** 
  89:lcd.c         **** void clear_screen()
  90:lcd.c         **** {
GAS LISTING /var/folders/b3/c8k8_7z16sxb5qhkpvrmv5jh0000gn/T//ccVKyh5f.s 			page 16


 720               		.loc 1 90 1 is_stmt 1 view -0
 721               		.cfi_startproc
 722 02bc 0F93      		push r16
 723               		.cfi_def_cfa_offset 3
 724               		.cfi_offset 16, -2
 725 02be 1F93      		push r17
 726               		.cfi_def_cfa_offset 4
 727               		.cfi_offset 17, -3
 728 02c0 CF93      		push r28
 729               		.cfi_def_cfa_offset 5
 730               		.cfi_offset 28, -4
 731 02c2 DF93      		push r29
 732               		.cfi_def_cfa_offset 6
 733               		.cfi_offset 29, -5
 734 02c4 CDB7      		in r28,__SP_L__
 735 02c6 DEB7      		in r29,__SP_H__
 736               		.cfi_def_cfa_register 28
 737 02c8 2897      		sbiw r28,8
 738               		.cfi_def_cfa_offset 14
 739 02ca 0FB6      		in __tmp_reg__,__SREG__
 740 02cc F894      		cli
 741 02ce DEBF      		out __SP_H__,r29
 742 02d0 0FBE      		out __SREG__,__tmp_reg__
 743 02d2 CDBF      		out __SP_L__,r28
 744               	/* prologue: function */
 745               	/* frame size = 8 */
 746               	/* stack size = 12 */
 747               	.L__stack_usage = 12
  91:lcd.c         **** 	display.x = 0;
 748               		.loc 1 91 2 view .LVU270
 749               		.loc 1 91 12 is_stmt 0 view .LVU271
 750 02d4 E0E0      		ldi r30,lo8(display)
 751 02d6 F0E0      		ldi r31,hi8(display)
 752 02d8 1782      		std Z+7,__zero_reg__
 753 02da 1682      		std Z+6,__zero_reg__
  92:lcd.c         **** 	display.y = 0;
 754               		.loc 1 92 2 is_stmt 1 view .LVU272
 755               		.loc 1 92 12 is_stmt 0 view .LVU273
 756 02dc 1186      		std Z+9,__zero_reg__
 757 02de 1086      		std Z+8,__zero_reg__
  93:lcd.c         **** 	rectangle r = {0, display.width-1, 0, display.height-1};
 758               		.loc 1 93 2 is_stmt 1 view .LVU274
 759               		.loc 1 93 12 is_stmt 0 view .LVU275
 760 02e0 1A82      		std Y+2,__zero_reg__
 761 02e2 1982      		std Y+1,__zero_reg__
 762               		.loc 1 93 33 view .LVU276
 763 02e4 8081      		ld r24,Z
 764 02e6 9181      		ldd r25,Z+1
 765 02e8 0197      		sbiw r24,1
 766               		.loc 1 93 12 view .LVU277
 767 02ea 482F      		mov r20,r24
 768 02ec 9C83      		std Y+4,r25
 769 02ee 8B83      		std Y+3,r24
 770 02f0 1E82      		std Y+6,__zero_reg__
 771 02f2 1D82      		std Y+5,__zero_reg__
 772               		.loc 1 93 54 view .LVU278
 773 02f4 8281      		ldd r24,Z+2
GAS LISTING /var/folders/b3/c8k8_7z16sxb5qhkpvrmv5jh0000gn/T//ccVKyh5f.s 			page 17


 774 02f6 9381      		ldd r25,Z+3
 775 02f8 0197      		sbiw r24,1
 776               		.loc 1 93 12 view .LVU279
 777 02fa 9887      		std Y+8,r25
 778 02fc 8F83      		std Y+7,r24
  94:lcd.c         **** 	fill_rectangle(r, display.background);
 779               		.loc 1 94 2 is_stmt 1 view .LVU280
 780 02fe 0485      		ldd r16,Z+12
 781 0300 1585      		ldd r17,Z+13
 782 0302 20E0      		ldi r18,0
 783 0304 3A81      		ldd r19,Y+2
 784 0306 5C81      		ldd r21,Y+4
 785 0308 60E0      		ldi r22,0
 786 030a 7E81      		ldd r23,Y+6
 787 030c 9885      		ldd r25,Y+8
 788 030e 0E94 0000 		call fill_rectangle
 789               	.LVL27:
 790               	/* epilogue start */
  95:lcd.c         **** }
 791               		.loc 1 95 1 is_stmt 0 view .LVU281
 792 0312 2896      		adiw r28,8
 793 0314 0FB6      		in __tmp_reg__,__SREG__
 794 0316 F894      		cli
 795 0318 DEBF      		out __SP_H__,r29
 796 031a 0FBE      		out __SREG__,__tmp_reg__
 797 031c CDBF      		out __SP_L__,r28
 798 031e DF91      		pop r29
 799 0320 CF91      		pop r28
 800 0322 1F91      		pop r17
 801 0324 0F91      		pop r16
 802 0326 0895      		ret
 803               		.cfi_endproc
 804               	.LFE5:
 805               		.size	clear_screen, .-clear_screen
 806               	.global	display_char
 807               		.type	display_char, @function
 808               	display_char:
 809               	.LVL28:
 810               	.LFB6:
  96:lcd.c         **** 
  97:lcd.c         **** void display_char(char c)
  98:lcd.c         **** {
 811               		.loc 1 98 1 is_stmt 1 view -0
 812               		.cfi_startproc
 813               		.loc 1 98 1 is_stmt 0 view .LVU283
 814 0328 AF92      		push r10
 815               		.cfi_def_cfa_offset 3
 816               		.cfi_offset 10, -2
 817 032a BF92      		push r11
 818               		.cfi_def_cfa_offset 4
 819               		.cfi_offset 11, -3
 820 032c CF92      		push r12
 821               		.cfi_def_cfa_offset 5
 822               		.cfi_offset 12, -4
 823 032e DF92      		push r13
 824               		.cfi_def_cfa_offset 6
 825               		.cfi_offset 13, -5
GAS LISTING /var/folders/b3/c8k8_7z16sxb5qhkpvrmv5jh0000gn/T//ccVKyh5f.s 			page 18


 826 0330 EF92      		push r14
 827               		.cfi_def_cfa_offset 7
 828               		.cfi_offset 14, -6
 829 0332 FF92      		push r15
 830               		.cfi_def_cfa_offset 8
 831               		.cfi_offset 15, -7
 832 0334 0F93      		push r16
 833               		.cfi_def_cfa_offset 9
 834               		.cfi_offset 16, -8
 835 0336 1F93      		push r17
 836               		.cfi_def_cfa_offset 10
 837               		.cfi_offset 17, -9
 838 0338 CF93      		push r28
 839               		.cfi_def_cfa_offset 11
 840               		.cfi_offset 28, -10
 841 033a DF93      		push r29
 842               		.cfi_def_cfa_offset 12
 843               		.cfi_offset 29, -11
 844               	/* prologue: function */
 845               	/* frame size = 0 */
 846               	/* stack size = 10 */
 847               	.L__stack_usage = 10
  99:lcd.c         **** 	uint16_t x, y;
 848               		.loc 1 99 2 is_stmt 1 view .LVU284
 100:lcd.c         **** 	PGM_P fdata; 
 849               		.loc 1 100 2 view .LVU285
 101:lcd.c         **** 	uint8_t bits, mask;
 850               		.loc 1 101 2 view .LVU286
 102:lcd.c         **** 	uint16_t sc=display.x, ec=display.x + 4, sp=display.y, ep=display.y + 7;
 851               		.loc 1 102 2 view .LVU287
 852               	.LVL29:
 103:lcd.c         **** 	if (c < 32 || c > 126) return;
 853               		.loc 1 103 2 view .LVU288
 854               		.loc 1 103 13 is_stmt 0 view .LVU289
 855 033c 90EE      		ldi r25,lo8(-32)
 856 033e 980F      		add r25,r24
 857               		.loc 1 103 5 view .LVU290
 858 0340 9F35      		cpi r25,lo8(95)
 859 0342 00F0      		brlo .+2
 860 0344 00C0      		rjmp .L19
 102:lcd.c         **** 	uint16_t sc=display.x, ec=display.x + 4, sp=display.y, ep=display.y + 7;
 861               		.loc 1 102 11 view .LVU291
 862 0346 4091 0000 		lds r20,display+6
 863 034a 5091 0000 		lds r21,display+6+1
 102:lcd.c         **** 	uint16_t sc=display.x, ec=display.x + 4, sp=display.y, ep=display.y + 7;
 864               		.loc 1 102 43 view .LVU292
 865 034e 2091 0000 		lds r18,display+8
 866 0352 3091 0000 		lds r19,display+8+1
 102:lcd.c         **** 	uint16_t sc=display.x, ec=display.x + 4, sp=display.y, ep=display.y + 7;
 867               		.loc 1 102 57 view .LVU293
 868 0356 B901      		movw r22,r18
 869 0358 695F      		subi r22,-7
 870 035a 7F4F      		sbci r23,-1
 104:lcd.c         **** 	fdata = (c - ' ')*5 + font5x7;
 871               		.loc 1 104 2 is_stmt 1 view .LVU294
 872               	.LVL30:
 105:lcd.c         **** 	write_cmd(PAGE_ADDRESS_SET);
GAS LISTING /var/folders/b3/c8k8_7z16sxb5qhkpvrmv5jh0000gn/T//ccVKyh5f.s 			page 19


 873               		.loc 1 105 2 view .LVU295
 874 035c 2C98      		cbi 0x5,4
 875               		.loc 1 105 2 view .LVU296
 876 035e 9BE2      		ldi r25,lo8(43)
 877 0360 9BB9      		out 0xb,r25
 878               		.loc 1 105 2 view .LVU297
 879 0362 2B98      		cbi 0x5,3
 880               		.loc 1 105 2 view .LVU298
 881 0364 2B9A      		sbi 0x5,3
 882               		.loc 1 105 2 view .LVU299
 883 0366 2C9A      		sbi 0x5,4
 884               		.loc 1 105 29 view .LVU300
 106:lcd.c         **** 	write_data16(sp);
 885               		.loc 1 106 2 view .LVU301
 886 0368 3BB9      		out 0xb,r19
 887               		.loc 1 106 2 view .LVU302
 888 036a 2B98      		cbi 0x5,3
 889               		.loc 1 106 2 view .LVU303
 890 036c 2B9A      		sbi 0x5,3
 891               		.loc 1 106 2 view .LVU304
 892               		.loc 1 106 2 view .LVU305
 893 036e 2BB9      		out 0xb,r18
 894               		.loc 1 106 2 view .LVU306
 895 0370 2B98      		cbi 0x5,3
 896               		.loc 1 106 2 view .LVU307
 897 0372 2B9A      		sbi 0x5,3
 898               		.loc 1 106 2 view .LVU308
 899               		.loc 1 106 18 view .LVU309
 107:lcd.c         **** 	write_data16(ep);
 900               		.loc 1 107 2 view .LVU310
 901 0374 7BB9      		out 0xb,r23
 902               		.loc 1 107 2 view .LVU311
 903 0376 2B98      		cbi 0x5,3
 904               		.loc 1 107 2 view .LVU312
 905 0378 2B9A      		sbi 0x5,3
 906               		.loc 1 107 2 view .LVU313
 907               		.loc 1 107 2 view .LVU314
 908 037a 6BB9      		out 0xb,r22
 909               		.loc 1 107 2 view .LVU315
 910 037c 2B98      		cbi 0x5,3
 911               		.loc 1 107 2 view .LVU316
 912 037e 2B9A      		sbi 0x5,3
 913               		.loc 1 107 2 view .LVU317
 914               		.loc 1 107 18 view .LVU318
 108:lcd.c         **** 	for(x=sc; x<=ec; x++) {
 915               		.loc 1 108 2 view .LVU319
 916               	.LVL31:
 104:lcd.c         **** 	write_cmd(PAGE_ADDRESS_SET);
 917               		.loc 1 104 13 is_stmt 0 view .LVU320
 918 0380 8052      		subi r24,32
 919 0382 990B      		sbc r25,r25
 920               	.LVL32:
 104:lcd.c         **** 	write_cmd(PAGE_ADDRESS_SET);
 921               		.loc 1 104 19 view .LVU321
 922 0384 A5E0      		ldi r26,lo8(5)
 923 0386 A89F      		mul r26,r24
 924 0388 F001      		movw r30,r0
GAS LISTING /var/folders/b3/c8k8_7z16sxb5qhkpvrmv5jh0000gn/T//ccVKyh5f.s 			page 20


 925 038a A99F      		mul r26,r25
 926 038c F00D      		add r31,r0
 927 038e 1124      		clr __zero_reg__
 104:lcd.c         **** 	write_cmd(PAGE_ADDRESS_SET);
 928               		.loc 1 104 8 view .LVU322
 929 0390 E050      		subi r30,lo8(-(font5x7))
 930 0392 F040      		sbci r31,hi8(-(font5x7))
 931               		.loc 1 108 7 view .LVU323
 932 0394 CA01      		movw r24,r20
 933 0396 D901      		movw r26,r18
 102:lcd.c         **** 	if (c < 32 || c > 126) return;
 934               		.loc 1 102 25 view .LVU324
 935 0398 7A01      		movw r14,r20
 936 039a C4E0      		ldi r28,4
 937 039c EC0E      		add r14,r28
 938 039e F11C      		adc r15,__zero_reg__
 109:lcd.c         **** 		write_cmd(COLUMN_ADDRESS_SET);
 939               		.loc 1 109 3 view .LVU325
 940 03a0 CAE2      		ldi r28,lo8(42)
 941 03a2 CC2E      		mov r12,r28
 110:lcd.c         **** 		write_data16(x);
 111:lcd.c         **** 		write_data16(x);
 112:lcd.c         **** 		write_cmd(MEMORY_WRITE);
 942               		.loc 1 112 3 view .LVU326
 943 03a4 DCE2      		ldi r29,lo8(44)
 944 03a6 BD2E      		mov r11,r29
 945               	.LVL33:
 946               	.L22:
 108:lcd.c         **** 		write_cmd(COLUMN_ADDRESS_SET);
 947               		.loc 1 108 12 is_stmt 1 discriminator 1 view .LVU327
 109:lcd.c         **** 		write_cmd(COLUMN_ADDRESS_SET);
 948               		.loc 1 109 3 is_stmt 0 discriminator 1 view .LVU328
 949 03a8 2C98      		cbi 0x5,4
 108:lcd.c         **** 		write_cmd(COLUMN_ADDRESS_SET);
 950               		.loc 1 108 2 discriminator 1 view .LVU329
 951 03aa E816      		cp r14,r24
 952 03ac F906      		cpc r15,r25
 953 03ae 00F4      		brsh .L29
 113:lcd.c         **** 		bits = pgm_read_byte(fdata++);
 114:lcd.c         **** 		for(y=sp, mask=0x01; y<=ep; y++, mask<<=1)
 115:lcd.c         **** 			write_data16((bits & mask) ? display.foreground : display.background);
 116:lcd.c         **** 	}
 117:lcd.c         **** 	write_cmd(COLUMN_ADDRESS_SET);
 954               		.loc 1 117 2 is_stmt 1 view .LVU330
 955               		.loc 1 117 2 view .LVU331
 956 03b0 EAE2      		ldi r30,lo8(42)
 957 03b2 EBB9      		out 0xb,r30
 958               		.loc 1 117 2 view .LVU332
 959 03b4 2B98      		cbi 0x5,3
 960               		.loc 1 117 2 view .LVU333
 961 03b6 2B9A      		sbi 0x5,3
 962               		.loc 1 117 2 view .LVU334
 963 03b8 2C9A      		sbi 0x5,4
 964               		.loc 1 117 31 view .LVU335
 118:lcd.c         **** 	write_data16(x);
 965               		.loc 1 118 2 view .LVU336
 966 03ba 9BB9      		out 0xb,r25
GAS LISTING /var/folders/b3/c8k8_7z16sxb5qhkpvrmv5jh0000gn/T//ccVKyh5f.s 			page 21


 967               		.loc 1 118 2 view .LVU337
 968 03bc 2B98      		cbi 0x5,3
 969               		.loc 1 118 2 view .LVU338
 970 03be 2B9A      		sbi 0x5,3
 971               		.loc 1 118 2 view .LVU339
 972               		.loc 1 118 2 view .LVU340
 973 03c0 8BB9      		out 0xb,r24
 974               		.loc 1 118 2 view .LVU341
 975 03c2 2B98      		cbi 0x5,3
 976               		.loc 1 118 2 view .LVU342
 977 03c4 2B9A      		sbi 0x5,3
 978               		.loc 1 118 2 view .LVU343
 979               		.loc 1 118 17 view .LVU344
 119:lcd.c         **** 	write_data16(x);
 980               		.loc 1 119 2 view .LVU345
 981 03c6 9BB9      		out 0xb,r25
 982               		.loc 1 119 2 view .LVU346
 983 03c8 2B98      		cbi 0x5,3
 984               		.loc 1 119 2 view .LVU347
 985 03ca 2B9A      		sbi 0x5,3
 986               		.loc 1 119 2 view .LVU348
 987               		.loc 1 119 2 view .LVU349
 988 03cc 8BB9      		out 0xb,r24
 989               		.loc 1 119 2 view .LVU350
 990 03ce 2B98      		cbi 0x5,3
 991               		.loc 1 119 2 view .LVU351
 992 03d0 2B9A      		sbi 0x5,3
 993               		.loc 1 119 2 view .LVU352
 994               		.loc 1 119 17 view .LVU353
 120:lcd.c         **** 	write_cmd(MEMORY_WRITE);
 995               		.loc 1 120 2 view .LVU354
 996 03d2 2C98      		cbi 0x5,4
 997               		.loc 1 120 2 view .LVU355
 998 03d4 8CE2      		ldi r24,lo8(44)
 999               	.LVL34:
 1000               		.loc 1 120 2 is_stmt 0 view .LVU356
 1001 03d6 8BB9      		out 0xb,r24
 1002               		.loc 1 120 2 is_stmt 1 view .LVU357
 1003 03d8 2B98      		cbi 0x5,3
 1004               		.loc 1 120 2 view .LVU358
 1005 03da 2B9A      		sbi 0x5,3
 1006               		.loc 1 120 2 view .LVU359
 1007 03dc 2C9A      		sbi 0x5,4
 1008               		.loc 1 120 25 view .LVU360
 121:lcd.c         **** 	for(y=sp; y<=ep; y++)
 1009               		.loc 1 121 2 view .LVU361
 1010               	.LVL35:
 1011               	.L30:
 1012               		.loc 1 121 12 discriminator 1 view .LVU362
 1013               		.loc 1 121 2 is_stmt 0 discriminator 1 view .LVU363
 1014 03de 6217      		cp r22,r18
 1015 03e0 7307      		cpc r23,r19
 1016 03e2 00F0      		brlo .+2
 1017 03e4 00C0      		rjmp .L31
 122:lcd.c         **** 		write_data16(display.background);
 1018               		.loc 1 122 35 is_stmt 1 view .LVU364
 123:lcd.c         **** 
GAS LISTING /var/folders/b3/c8k8_7z16sxb5qhkpvrmv5jh0000gn/T//ccVKyh5f.s 			page 22


 124:lcd.c         **** 	display.x += 6;
 1019               		.loc 1 124 2 view .LVU365
 1020               		.loc 1 124 12 is_stmt 0 view .LVU366
 1021 03e6 4A5F      		subi r20,-6
 1022 03e8 5F4F      		sbci r21,-1
 1023               	.LVL36:
 1024               		.loc 1 124 12 view .LVU367
 1025 03ea 5093 0000 		sts display+6+1,r21
 1026 03ee 4093 0000 		sts display+6,r20
 1027               	.LVL37:
 125:lcd.c         **** 	if (display.x >= display.width) { display.x=0; display.y+=8; }
 1028               		.loc 1 125 2 is_stmt 1 view .LVU368
 1029               		.loc 1 125 5 is_stmt 0 view .LVU369
 1030 03f2 8091 0000 		lds r24,display
 1031 03f6 9091 0000 		lds r25,display+1
 1032 03fa 4817      		cp r20,r24
 1033 03fc 5907      		cpc r21,r25
 1034 03fe 00F0      		brlo .L19
 1035               		.loc 1 125 36 is_stmt 1 discriminator 1 view .LVU370
 1036               		.loc 1 125 45 is_stmt 0 discriminator 1 view .LVU371
 1037 0400 1092 0000 		sts display+6+1,__zero_reg__
 1038 0404 1092 0000 		sts display+6,__zero_reg__
 1039               		.loc 1 125 49 is_stmt 1 discriminator 1 view .LVU372
 1040               		.loc 1 125 58 is_stmt 0 discriminator 1 view .LVU373
 1041 0408 1896      		adiw r26,8
 1042               	.LVL38:
 1043               		.loc 1 125 58 discriminator 1 view .LVU374
 1044 040a B093 0000 		sts display+8+1,r27
 1045 040e A093 0000 		sts display+8,r26
 1046               	.LVL39:
 1047               	.L19:
 1048               	/* epilogue start */
 126:lcd.c         **** }
 1049               		.loc 1 126 1 view .LVU375
 1050 0412 DF91      		pop r29
 1051 0414 CF91      		pop r28
 1052 0416 1F91      		pop r17
 1053 0418 0F91      		pop r16
 1054 041a FF90      		pop r15
 1055 041c EF90      		pop r14
 1056 041e DF90      		pop r13
 1057 0420 CF90      		pop r12
 1058 0422 BF90      		pop r11
 1059 0424 AF90      		pop r10
 1060 0426 0895      		ret
 1061               	.LVL40:
 1062               	.L29:
 109:lcd.c         **** 		write_data16(x);
 1063               		.loc 1 109 3 is_stmt 1 view .LVU376
 109:lcd.c         **** 		write_data16(x);
 1064               		.loc 1 109 3 view .LVU377
 1065 0428 CBB8      		out 0xb,r12
 109:lcd.c         **** 		write_data16(x);
 1066               		.loc 1 109 3 view .LVU378
 1067 042a 2B98      		cbi 0x5,3
 109:lcd.c         **** 		write_data16(x);
 1068               		.loc 1 109 3 view .LVU379
GAS LISTING /var/folders/b3/c8k8_7z16sxb5qhkpvrmv5jh0000gn/T//ccVKyh5f.s 			page 23


 1069 042c 2B9A      		sbi 0x5,3
 109:lcd.c         **** 		write_data16(x);
 1070               		.loc 1 109 3 view .LVU380
 1071 042e 2C9A      		sbi 0x5,4
 109:lcd.c         **** 		write_data16(x);
 1072               		.loc 1 109 32 view .LVU381
 110:lcd.c         **** 		write_data16(x);
 1073               		.loc 1 110 3 view .LVU382
 1074 0430 9BB9      		out 0xb,r25
 110:lcd.c         **** 		write_data16(x);
 1075               		.loc 1 110 3 view .LVU383
 1076 0432 2B98      		cbi 0x5,3
 110:lcd.c         **** 		write_data16(x);
 1077               		.loc 1 110 3 view .LVU384
 1078 0434 2B9A      		sbi 0x5,3
 110:lcd.c         **** 		write_data16(x);
 1079               		.loc 1 110 3 view .LVU385
 110:lcd.c         **** 		write_data16(x);
 1080               		.loc 1 110 3 view .LVU386
 1081 0436 8BB9      		out 0xb,r24
 110:lcd.c         **** 		write_data16(x);
 1082               		.loc 1 110 3 view .LVU387
 1083 0438 2B98      		cbi 0x5,3
 110:lcd.c         **** 		write_data16(x);
 1084               		.loc 1 110 3 view .LVU388
 1085 043a 2B9A      		sbi 0x5,3
 110:lcd.c         **** 		write_data16(x);
 1086               		.loc 1 110 3 view .LVU389
 110:lcd.c         **** 		write_data16(x);
 1087               		.loc 1 110 18 view .LVU390
 111:lcd.c         **** 		write_cmd(MEMORY_WRITE);
 1088               		.loc 1 111 3 view .LVU391
 1089 043c 9BB9      		out 0xb,r25
 111:lcd.c         **** 		write_cmd(MEMORY_WRITE);
 1090               		.loc 1 111 3 view .LVU392
 1091 043e 2B98      		cbi 0x5,3
 111:lcd.c         **** 		write_cmd(MEMORY_WRITE);
 1092               		.loc 1 111 3 view .LVU393
 1093 0440 2B9A      		sbi 0x5,3
 111:lcd.c         **** 		write_cmd(MEMORY_WRITE);
 1094               		.loc 1 111 3 view .LVU394
 111:lcd.c         **** 		write_cmd(MEMORY_WRITE);
 1095               		.loc 1 111 3 view .LVU395
 1096 0442 8BB9      		out 0xb,r24
 111:lcd.c         **** 		write_cmd(MEMORY_WRITE);
 1097               		.loc 1 111 3 view .LVU396
 1098 0444 2B98      		cbi 0x5,3
 111:lcd.c         **** 		write_cmd(MEMORY_WRITE);
 1099               		.loc 1 111 3 view .LVU397
 1100 0446 2B9A      		sbi 0x5,3
 111:lcd.c         **** 		write_cmd(MEMORY_WRITE);
 1101               		.loc 1 111 3 view .LVU398
 111:lcd.c         **** 		write_cmd(MEMORY_WRITE);
 1102               		.loc 1 111 18 view .LVU399
 112:lcd.c         **** 		bits = pgm_read_byte(fdata++);
 1103               		.loc 1 112 3 view .LVU400
 1104 0448 2C98      		cbi 0x5,4
GAS LISTING /var/folders/b3/c8k8_7z16sxb5qhkpvrmv5jh0000gn/T//ccVKyh5f.s 			page 24


 112:lcd.c         **** 		bits = pgm_read_byte(fdata++);
 1105               		.loc 1 112 3 view .LVU401
 1106 044a BBB8      		out 0xb,r11
 112:lcd.c         **** 		bits = pgm_read_byte(fdata++);
 1107               		.loc 1 112 3 view .LVU402
 1108 044c 2B98      		cbi 0x5,3
 112:lcd.c         **** 		bits = pgm_read_byte(fdata++);
 1109               		.loc 1 112 3 view .LVU403
 1110 044e 2B9A      		sbi 0x5,3
 112:lcd.c         **** 		bits = pgm_read_byte(fdata++);
 1111               		.loc 1 112 3 view .LVU404
 1112 0450 2C9A      		sbi 0x5,4
 112:lcd.c         **** 		bits = pgm_read_byte(fdata++);
 1113               		.loc 1 112 26 view .LVU405
 113:lcd.c         **** 		for(y=sp, mask=0x01; y<=ep; y++, mask<<=1)
 1114               		.loc 1 113 3 view .LVU406
 1115               	.LBB2:
 113:lcd.c         **** 		for(y=sp, mask=0x01; y<=ep; y++, mask<<=1)
 1116               		.loc 1 113 10 view .LVU407
 1117               	.LVL41:
 113:lcd.c         **** 		for(y=sp, mask=0x01; y<=ep; y++, mask<<=1)
 1118               		.loc 1 113 10 view .LVU408
 113:lcd.c         **** 		for(y=sp, mask=0x01; y<=ep; y++, mask<<=1)
 1119               		.loc 1 113 10 view .LVU409
 1120               	/* #APP */
 1121               	 ;  113 "lcd.c" 1
 1122 0452 A490      		lpm r10, Z
 1123               		
 1124               	 ;  0 "" 2
 1125               	.LVL42:
 113:lcd.c         **** 		for(y=sp, mask=0x01; y<=ep; y++, mask<<=1)
 1126               		.loc 1 113 10 view .LVU410
 113:lcd.c         **** 		for(y=sp, mask=0x01; y<=ep; y++, mask<<=1)
 1127               		.loc 1 113 10 is_stmt 0 view .LVU411
 1128               	/* #NOAPP */
 1129               	.LBE2:
 114:lcd.c         **** 			write_data16((bits & mask) ? display.foreground : display.background);
 1130               		.loc 1 114 3 is_stmt 1 view .LVU412
 114:lcd.c         **** 			write_data16((bits & mask) ? display.foreground : display.background);
 1131               		.loc 1 114 8 is_stmt 0 view .LVU413
 1132 0454 E901      		movw r28,r18
 114:lcd.c         **** 			write_data16((bits & mask) ? display.foreground : display.background);
 1133               		.loc 1 114 17 view .LVU414
 1134 0456 11E0      		ldi r17,lo8(1)
 1135               	.LVL43:
 1136               	.L23:
 114:lcd.c         **** 			write_data16((bits & mask) ? display.foreground : display.background);
 1137               		.loc 1 114 24 is_stmt 1 discriminator 2 view .LVU415
 114:lcd.c         **** 			write_data16((bits & mask) ? display.foreground : display.background);
 1138               		.loc 1 114 3 is_stmt 0 discriminator 2 view .LVU416
 1139 0458 6C17      		cp r22,r28
 1140 045a 7D07      		cpc r23,r29
 1141 045c 00F4      		brsh .L28
 115:lcd.c         **** 	}
 1142               		.loc 1 115 73 is_stmt 1 discriminator 2 view .LVU417
 108:lcd.c         **** 		write_cmd(COLUMN_ADDRESS_SET);
 1143               		.loc 1 108 19 discriminator 2 view .LVU418
GAS LISTING /var/folders/b3/c8k8_7z16sxb5qhkpvrmv5jh0000gn/T//ccVKyh5f.s 			page 25


 108:lcd.c         **** 		write_cmd(COLUMN_ADDRESS_SET);
 1144               		.loc 1 108 20 is_stmt 0 discriminator 2 view .LVU419
 1145 045e 0196      		adiw r24,1
 1146               	.LVL44:
 108:lcd.c         **** 		write_cmd(COLUMN_ADDRESS_SET);
 1147               		.loc 1 108 20 discriminator 2 view .LVU420
 1148 0460 3196      		adiw r30,1
 1149               	.LVL45:
 108:lcd.c         **** 		write_cmd(COLUMN_ADDRESS_SET);
 1150               		.loc 1 108 20 discriminator 2 view .LVU421
 1151 0462 00C0      		rjmp .L22
 1152               	.LVL46:
 1153               	.L28:
 115:lcd.c         **** 	}
 1154               		.loc 1 115 4 is_stmt 1 view .LVU422
 1155 0464 012F      		mov r16,r17
 1156 0466 0A21      		and r16,r10
 1157 0468 D090 0000 		lds r13,display+11
 1158 046c 0111      		cpse r16,__zero_reg__
 1159 046e 00C0      		rjmp .L25
 115:lcd.c         **** 	}
 1160               		.loc 1 115 4 is_stmt 0 discriminator 2 view .LVU423
 1161 0470 D090 0000 		lds r13,display+13
 1162               	.L25:
 115:lcd.c         **** 	}
 1163               		.loc 1 115 4 discriminator 4 view .LVU424
 1164 0474 DBB8      		out 0xb,r13
 115:lcd.c         **** 	}
 1165               		.loc 1 115 4 is_stmt 1 discriminator 4 view .LVU425
 1166 0476 2B98      		cbi 0x5,3
 115:lcd.c         **** 	}
 1167               		.loc 1 115 4 discriminator 4 view .LVU426
 1168 0478 2B9A      		sbi 0x5,3
 115:lcd.c         **** 	}
 1169               		.loc 1 115 4 discriminator 4 view .LVU427
 115:lcd.c         **** 	}
 1170               		.loc 1 115 4 discriminator 4 view .LVU428
 1171 047a 0023      		tst r16
 1172 047c 01F0      		breq .L26
 115:lcd.c         **** 	}
 1173               		.loc 1 115 4 is_stmt 0 discriminator 5 view .LVU429
 1174 047e 0091 0000 		lds r16,display+10
 1175               	.L27:
 115:lcd.c         **** 	}
 1176               		.loc 1 115 4 discriminator 8 view .LVU430
 1177 0482 0BB9      		out 0xb,r16
 115:lcd.c         **** 	}
 1178               		.loc 1 115 4 is_stmt 1 discriminator 8 view .LVU431
 1179 0484 2B98      		cbi 0x5,3
 115:lcd.c         **** 	}
 1180               		.loc 1 115 4 discriminator 8 view .LVU432
 1181 0486 2B9A      		sbi 0x5,3
 115:lcd.c         **** 	}
 1182               		.loc 1 115 4 discriminator 8 view .LVU433
 114:lcd.c         **** 			write_data16((bits & mask) ? display.foreground : display.background);
 1183               		.loc 1 114 31 discriminator 8 view .LVU434
 114:lcd.c         **** 			write_data16((bits & mask) ? display.foreground : display.background);
GAS LISTING /var/folders/b3/c8k8_7z16sxb5qhkpvrmv5jh0000gn/T//ccVKyh5f.s 			page 26


 1184               		.loc 1 114 32 is_stmt 0 discriminator 8 view .LVU435
 1185 0488 2196      		adiw r28,1
 1186               	.LVL47:
 114:lcd.c         **** 			write_data16((bits & mask) ? display.foreground : display.background);
 1187               		.loc 1 114 40 discriminator 8 view .LVU436
 1188 048a 110F      		lsl r17
 1189               	.LVL48:
 114:lcd.c         **** 			write_data16((bits & mask) ? display.foreground : display.background);
 1190               		.loc 1 114 40 discriminator 8 view .LVU437
 1191 048c 00C0      		rjmp .L23
 1192               	.L26:
 115:lcd.c         **** 	}
 1193               		.loc 1 115 4 discriminator 6 view .LVU438
 1194 048e 0091 0000 		lds r16,display+12
 1195 0492 00C0      		rjmp .L27
 1196               	.LVL49:
 1197               	.L31:
 122:lcd.c         **** 
 1198               		.loc 1 122 3 is_stmt 1 discriminator 3 view .LVU439
 1199 0494 8091 0000 		lds r24,display+13
 1200 0498 8BB9      		out 0xb,r24
 122:lcd.c         **** 
 1201               		.loc 1 122 3 discriminator 3 view .LVU440
 1202 049a 2B98      		cbi 0x5,3
 122:lcd.c         **** 
 1203               		.loc 1 122 3 discriminator 3 view .LVU441
 1204 049c 2B9A      		sbi 0x5,3
 122:lcd.c         **** 
 1205               		.loc 1 122 3 discriminator 3 view .LVU442
 122:lcd.c         **** 
 1206               		.loc 1 122 3 discriminator 3 view .LVU443
 1207 049e 8091 0000 		lds r24,display+12
 1208 04a2 8BB9      		out 0xb,r24
 122:lcd.c         **** 
 1209               		.loc 1 122 3 discriminator 3 view .LVU444
 1210 04a4 2B98      		cbi 0x5,3
 122:lcd.c         **** 
 1211               		.loc 1 122 3 discriminator 3 view .LVU445
 1212 04a6 2B9A      		sbi 0x5,3
 122:lcd.c         **** 
 1213               		.loc 1 122 3 discriminator 3 view .LVU446
 121:lcd.c         **** 		write_data16(display.background);
 1214               		.loc 1 121 19 discriminator 3 view .LVU447
 121:lcd.c         **** 		write_data16(display.background);
 1215               		.loc 1 121 20 is_stmt 0 discriminator 3 view .LVU448
 1216 04a8 2F5F      		subi r18,-1
 1217 04aa 3F4F      		sbci r19,-1
 1218               	.LVL50:
 121:lcd.c         **** 		write_data16(display.background);
 1219               		.loc 1 121 20 discriminator 3 view .LVU449
 1220 04ac 00C0      		rjmp .L30
 1221               		.cfi_endproc
 1222               	.LFE6:
 1223               		.size	display_char, .-display_char
 1224               	.global	display_string
 1225               		.type	display_string, @function
 1226               	display_string:
GAS LISTING /var/folders/b3/c8k8_7z16sxb5qhkpvrmv5jh0000gn/T//ccVKyh5f.s 			page 27


 1227               	.LVL51:
 1228               	.LFB7:
 127:lcd.c         **** 
 128:lcd.c         **** void display_string(char *str)
 129:lcd.c         **** {
 1229               		.loc 1 129 1 is_stmt 1 view -0
 1230               		.cfi_startproc
 1231               		.loc 1 129 1 is_stmt 0 view .LVU451
 1232 04ae 1F93      		push r17
 1233               		.cfi_def_cfa_offset 3
 1234               		.cfi_offset 17, -2
 1235 04b0 CF93      		push r28
 1236               		.cfi_def_cfa_offset 4
 1237               		.cfi_offset 28, -3
 1238 04b2 DF93      		push r29
 1239               		.cfi_def_cfa_offset 5
 1240               		.cfi_offset 29, -4
 1241               	/* prologue: function */
 1242               	/* frame size = 0 */
 1243               	/* stack size = 3 */
 1244               	.L__stack_usage = 3
 1245 04b4 EC01      		movw r28,r24
 130:lcd.c         **** 	uint8_t i;
 1246               		.loc 1 130 2 is_stmt 1 view .LVU452
 131:lcd.c         **** 	for(i=0; str[i]; i++) 
 1247               		.loc 1 131 2 view .LVU453
 1248               	.LVL52:
 1249               		.loc 1 131 7 is_stmt 0 view .LVU454
 1250 04b6 10E0      		ldi r17,0
 1251               	.LVL53:
 1252               	.L34:
 1253               		.loc 1 131 11 is_stmt 1 discriminator 1 view .LVU455
 1254               		.loc 1 131 14 is_stmt 0 discriminator 1 view .LVU456
 1255 04b8 FE01      		movw r30,r28
 1256 04ba E10F      		add r30,r17
 1257 04bc F11D      		adc r31,__zero_reg__
 1258 04be 8081      		ld r24,Z
 1259               		.loc 1 131 2 discriminator 1 view .LVU457
 1260 04c0 8111      		cpse r24,__zero_reg__
 1261 04c2 00C0      		rjmp .L35
 1262               	/* epilogue start */
 132:lcd.c         **** 		display_char(str[i]);
 133:lcd.c         **** }
 1263               		.loc 1 133 1 view .LVU458
 1264 04c4 DF91      		pop r29
 1265 04c6 CF91      		pop r28
 1266               	.LVL54:
 1267               		.loc 1 133 1 view .LVU459
 1268 04c8 1F91      		pop r17
 1269               	.LVL55:
 1270               		.loc 1 133 1 view .LVU460
 1271 04ca 0895      		ret
 1272               	.LVL56:
 1273               	.L35:
 132:lcd.c         **** 		display_char(str[i]);
 1274               		.loc 1 132 3 is_stmt 1 discriminator 3 view .LVU461
 1275 04cc 0E94 0000 		call display_char
GAS LISTING /var/folders/b3/c8k8_7z16sxb5qhkpvrmv5jh0000gn/T//ccVKyh5f.s 			page 28


 1276               	.LVL57:
 131:lcd.c         **** 	for(i=0; str[i]; i++) 
 1277               		.loc 1 131 19 discriminator 3 view .LVU462
 131:lcd.c         **** 	for(i=0; str[i]; i++) 
 1278               		.loc 1 131 20 is_stmt 0 discriminator 3 view .LVU463
 1279 04d0 1F5F      		subi r17,lo8(-(1))
 1280               	.LVL58:
 131:lcd.c         **** 	for(i=0; str[i]; i++) 
 1281               		.loc 1 131 20 discriminator 3 view .LVU464
 1282 04d2 00C0      		rjmp .L34
 1283               		.cfi_endproc
 1284               	.LFE7:
 1285               		.size	display_string, .-display_string
 1286               	.global	display
 1287               		.data
 1288               		.type	display, @object
 1289               		.size	display, 14
 1290               	display:
 1291 0000 F000      		.word	240
 1292 0002 4001      		.word	320
 1293 0004 0000      		.word	0
 1294 0006 0000      		.word	0
 1295 0008 0000      		.word	0
 1296 000a FFFF      		.word	-1
 1297 000c 0000      		.word	0
 1298               		.text
 1299               	.Letext0:
 1300               		.file 2 "/usr/local/Cellar/avr-gcc/9.2.0/avr/include/stdint.h"
 1301               		.file 3 "lcd.h"
 1302               		.file 4 "font.h"
 1303               		.file 5 "ili934x.h"
 1304               		.section	.debug_info,"",@progbits
 1305               	.Ldebug_info0:
 1306 0000 4A04 0000 		.long	0x44a
 1307 0004 0400      		.word	0x4
 1308 0006 0000 0000 		.long	.Ldebug_abbrev0
 1309 000a 04        		.byte	0x4
 1310 000b 01        		.uleb128 0x1
 1311 000c 0000 0000 		.long	.LASF37
 1312 0010 0C        		.byte	0xc
 1313 0011 0000 0000 		.long	.LASF38
 1314 0015 0000 0000 		.long	.LASF39
 1315 0019 0000 0000 		.long	.Ltext0
 1316 001d D404 0000 		.long	.Letext0-.Ltext0
 1317 0021 0000 0000 		.long	.Ldebug_line0
 1318 0025 02        		.uleb128 0x2
 1319 0026 01        		.byte	0x1
 1320 0027 06        		.byte	0x6
 1321 0028 0000 0000 		.long	.LASF0
 1322 002c 03        		.uleb128 0x3
 1323 002d 0000 0000 		.long	.LASF2
 1324 0031 02        		.byte	0x2
 1325 0032 7E        		.byte	0x7e
 1326 0033 16        		.byte	0x16
 1327 0034 3D00 0000 		.long	0x3d
 1328 0038 04        		.uleb128 0x4
 1329 0039 2C00 0000 		.long	0x2c
GAS LISTING /var/folders/b3/c8k8_7z16sxb5qhkpvrmv5jh0000gn/T//ccVKyh5f.s 			page 29


 1330 003d 02        		.uleb128 0x2
 1331 003e 01        		.byte	0x1
 1332 003f 08        		.byte	0x8
 1333 0040 0000 0000 		.long	.LASF1
 1334 0044 05        		.uleb128 0x5
 1335 0045 02        		.byte	0x2
 1336 0046 05        		.byte	0x5
 1337 0047 696E 7400 		.string	"int"
 1338 004b 03        		.uleb128 0x3
 1339 004c 0000 0000 		.long	.LASF3
 1340 0050 02        		.byte	0x2
 1341 0051 80        		.byte	0x80
 1342 0052 16        		.byte	0x16
 1343 0053 5700 0000 		.long	0x57
 1344 0057 02        		.uleb128 0x2
 1345 0058 02        		.byte	0x2
 1346 0059 07        		.byte	0x7
 1347 005a 0000 0000 		.long	.LASF4
 1348 005e 02        		.uleb128 0x2
 1349 005f 04        		.byte	0x4
 1350 0060 05        		.byte	0x5
 1351 0061 0000 0000 		.long	.LASF5
 1352 0065 02        		.uleb128 0x2
 1353 0066 04        		.byte	0x4
 1354 0067 07        		.byte	0x7
 1355 0068 0000 0000 		.long	.LASF6
 1356 006c 02        		.uleb128 0x2
 1357 006d 08        		.byte	0x8
 1358 006e 05        		.byte	0x5
 1359 006f 0000 0000 		.long	.LASF7
 1360 0073 02        		.uleb128 0x2
 1361 0074 08        		.byte	0x8
 1362 0075 07        		.byte	0x7
 1363 0076 0000 0000 		.long	.LASF8
 1364 007a 06        		.uleb128 0x6
 1365 007b 3800 0000 		.long	0x38
 1366 007f 8500 0000 		.long	0x85
 1367 0083 07        		.uleb128 0x7
 1368 0084 00        		.byte	0
 1369 0085 04        		.uleb128 0x4
 1370 0086 7A00 0000 		.long	0x7a
 1371 008a 08        		.uleb128 0x8
 1372 008b 0000 0000 		.long	.LASF19
 1373 008f 04        		.byte	0x4
 1374 0090 0C        		.byte	0xc
 1375 0091 16        		.byte	0x16
 1376 0092 8500 0000 		.long	0x85
 1377 0096 09        		.uleb128 0x9
 1378 0097 07        		.byte	0x7
 1379 0098 02        		.byte	0x2
 1380 0099 5700 0000 		.long	0x57
 1381 009d 03        		.byte	0x3
 1382 009e 15        		.byte	0x15
 1383 009f 0E        		.byte	0xe
 1384 00a0 BD00 0000 		.long	0xbd
 1385 00a4 0A        		.uleb128 0xa
 1386 00a5 0000 0000 		.long	.LASF9
GAS LISTING /var/folders/b3/c8k8_7z16sxb5qhkpvrmv5jh0000gn/T//ccVKyh5f.s 			page 30


 1387 00a9 00        		.byte	0
 1388 00aa 0A        		.uleb128 0xa
 1389 00ab 0000 0000 		.long	.LASF10
 1390 00af 01        		.byte	0x1
 1391 00b0 0A        		.uleb128 0xa
 1392 00b1 0000 0000 		.long	.LASF11
 1393 00b5 02        		.byte	0x2
 1394 00b6 0A        		.uleb128 0xa
 1395 00b7 0000 0000 		.long	.LASF12
 1396 00bb 03        		.byte	0x3
 1397 00bc 00        		.byte	0
 1398 00bd 03        		.uleb128 0x3
 1399 00be 0000 0000 		.long	.LASF13
 1400 00c2 03        		.byte	0x3
 1401 00c3 15        		.byte	0x15
 1402 00c4 29        		.byte	0x29
 1403 00c5 9600 0000 		.long	0x96
 1404 00c9 0B        		.uleb128 0xb
 1405 00ca 0E        		.byte	0xe
 1406 00cb 03        		.byte	0x3
 1407 00cc 17        		.byte	0x17
 1408 00cd 09        		.byte	0x9
 1409 00ce 2A01 0000 		.long	0x12a
 1410 00d2 0C        		.uleb128 0xc
 1411 00d3 0000 0000 		.long	.LASF14
 1412 00d7 03        		.byte	0x3
 1413 00d8 18        		.byte	0x18
 1414 00d9 0B        		.byte	0xb
 1415 00da 4B00 0000 		.long	0x4b
 1416 00de 00        		.byte	0
 1417 00df 0C        		.uleb128 0xc
 1418 00e0 0000 0000 		.long	.LASF15
 1419 00e4 03        		.byte	0x3
 1420 00e5 18        		.byte	0x18
 1421 00e6 12        		.byte	0x12
 1422 00e7 4B00 0000 		.long	0x4b
 1423 00eb 02        		.byte	0x2
 1424 00ec 0C        		.uleb128 0xc
 1425 00ed 0000 0000 		.long	.LASF16
 1426 00f1 03        		.byte	0x3
 1427 00f2 19        		.byte	0x19
 1428 00f3 0E        		.byte	0xe
 1429 00f4 BD00 0000 		.long	0xbd
 1430 00f8 04        		.byte	0x4
 1431 00f9 0D        		.uleb128 0xd
 1432 00fa 7800      		.string	"x"
 1433 00fc 03        		.byte	0x3
 1434 00fd 1A        		.byte	0x1a
 1435 00fe 0B        		.byte	0xb
 1436 00ff 4B00 0000 		.long	0x4b
 1437 0103 06        		.byte	0x6
 1438 0104 0D        		.uleb128 0xd
 1439 0105 7900      		.string	"y"
 1440 0107 03        		.byte	0x3
 1441 0108 1A        		.byte	0x1a
 1442 0109 0E        		.byte	0xe
 1443 010a 4B00 0000 		.long	0x4b
GAS LISTING /var/folders/b3/c8k8_7z16sxb5qhkpvrmv5jh0000gn/T//ccVKyh5f.s 			page 31


 1444 010e 08        		.byte	0x8
 1445 010f 0C        		.uleb128 0xc
 1446 0110 0000 0000 		.long	.LASF17
 1447 0114 03        		.byte	0x3
 1448 0115 1B        		.byte	0x1b
 1449 0116 0B        		.byte	0xb
 1450 0117 4B00 0000 		.long	0x4b
 1451 011b 0A        		.byte	0xa
 1452 011c 0C        		.uleb128 0xc
 1453 011d 0000 0000 		.long	.LASF18
 1454 0121 03        		.byte	0x3
 1455 0122 1B        		.byte	0x1b
 1456 0123 17        		.byte	0x17
 1457 0124 4B00 0000 		.long	0x4b
 1458 0128 0C        		.byte	0xc
 1459 0129 00        		.byte	0
 1460 012a 0E        		.uleb128 0xe
 1461 012b 6C63 6400 		.string	"lcd"
 1462 012f 03        		.byte	0x3
 1463 0130 1C        		.byte	0x1c
 1464 0131 03        		.byte	0x3
 1465 0132 C900 0000 		.long	0xc9
 1466 0136 08        		.uleb128 0x8
 1467 0137 0000 0000 		.long	.LASF20
 1468 013b 03        		.byte	0x3
 1469 013c 1E        		.byte	0x1e
 1470 013d 0C        		.byte	0xc
 1471 013e 2A01 0000 		.long	0x12a
 1472 0142 0B        		.uleb128 0xb
 1473 0143 08        		.byte	0x8
 1474 0144 03        		.byte	0x3
 1475 0145 20        		.byte	0x20
 1476 0146 09        		.byte	0x9
 1477 0147 8001 0000 		.long	0x180
 1478 014b 0C        		.uleb128 0xc
 1479 014c 0000 0000 		.long	.LASF21
 1480 0150 03        		.byte	0x3
 1481 0151 21        		.byte	0x21
 1482 0152 0B        		.byte	0xb
 1483 0153 4B00 0000 		.long	0x4b
 1484 0157 00        		.byte	0
 1485 0158 0C        		.uleb128 0xc
 1486 0159 0000 0000 		.long	.LASF22
 1487 015d 03        		.byte	0x3
 1488 015e 21        		.byte	0x21
 1489 015f 11        		.byte	0x11
 1490 0160 4B00 0000 		.long	0x4b
 1491 0164 02        		.byte	0x2
 1492 0165 0D        		.uleb128 0xd
 1493 0166 746F 7000 		.string	"top"
 1494 016a 03        		.byte	0x3
 1495 016b 22        		.byte	0x22
 1496 016c 0B        		.byte	0xb
 1497 016d 4B00 0000 		.long	0x4b
 1498 0171 04        		.byte	0x4
 1499 0172 0C        		.uleb128 0xc
 1500 0173 0000 0000 		.long	.LASF23
GAS LISTING /var/folders/b3/c8k8_7z16sxb5qhkpvrmv5jh0000gn/T//ccVKyh5f.s 			page 32


 1501 0177 03        		.byte	0x3
 1502 0178 22        		.byte	0x22
 1503 0179 10        		.byte	0x10
 1504 017a 4B00 0000 		.long	0x4b
 1505 017e 06        		.byte	0x6
 1506 017f 00        		.byte	0
 1507 0180 03        		.uleb128 0x3
 1508 0181 0000 0000 		.long	.LASF24
 1509 0185 03        		.byte	0x3
 1510 0186 23        		.byte	0x23
 1511 0187 03        		.byte	0x3
 1512 0188 4201 0000 		.long	0x142
 1513 018c 0F        		.uleb128 0xf
 1514 018d 3601 0000 		.long	0x136
 1515 0191 01        		.byte	0x1
 1516 0192 0A        		.byte	0xa
 1517 0193 05        		.byte	0x5
 1518 0194 05        		.uleb128 0x5
 1519 0195 03        		.byte	0x3
 1520 0196 0000 0000 		.long	display
 1521 019a 10        		.uleb128 0x10
 1522 019b 0000 0000 		.long	.LASF26
 1523 019f 01        		.byte	0x1
 1524 01a0 80        		.byte	0x80
 1525 01a1 06        		.byte	0x6
 1526 01a2 0000 0000 		.long	.LFB7
 1527 01a6 2600 0000 		.long	.LFE7-.LFB7
 1528 01aa 01        		.uleb128 0x1
 1529 01ab 9C        		.byte	0x9c
 1530 01ac E001 0000 		.long	0x1e0
 1531 01b0 11        		.uleb128 0x11
 1532 01b1 7374 7200 		.string	"str"
 1533 01b5 01        		.byte	0x1
 1534 01b6 80        		.byte	0x80
 1535 01b7 1B        		.byte	0x1b
 1536 01b8 E001 0000 		.long	0x1e0
 1537 01bc 0000 0000 		.long	.LLST20
 1538 01c0 0000 0000 		.long	.LVUS20
 1539 01c4 12        		.uleb128 0x12
 1540 01c5 6900      		.string	"i"
 1541 01c7 01        		.byte	0x1
 1542 01c8 82        		.byte	0x82
 1543 01c9 0A        		.byte	0xa
 1544 01ca 2C00 0000 		.long	0x2c
 1545 01ce 0000 0000 		.long	.LLST21
 1546 01d2 0000 0000 		.long	.LVUS21
 1547 01d6 13        		.uleb128 0x13
 1548 01d7 0000 0000 		.long	.LVL57
 1549 01db F201 0000 		.long	0x1f2
 1550 01df 00        		.byte	0
 1551 01e0 14        		.uleb128 0x14
 1552 01e1 02        		.byte	0x2
 1553 01e2 E601 0000 		.long	0x1e6
 1554 01e6 02        		.uleb128 0x2
 1555 01e7 01        		.byte	0x1
 1556 01e8 08        		.byte	0x8
 1557 01e9 0000 0000 		.long	.LASF25
GAS LISTING /var/folders/b3/c8k8_7z16sxb5qhkpvrmv5jh0000gn/T//ccVKyh5f.s 			page 33


 1558 01ed 04        		.uleb128 0x4
 1559 01ee E601 0000 		.long	0x1e6
 1560 01f2 10        		.uleb128 0x10
 1561 01f3 0000 0000 		.long	.LASF27
 1562 01f7 01        		.byte	0x1
 1563 01f8 61        		.byte	0x61
 1564 01f9 06        		.byte	0x6
 1565 01fa 0000 0000 		.long	.LFB6
 1566 01fe 8601 0000 		.long	.LFE6-.LFB6
 1567 0202 01        		.uleb128 0x1
 1568 0203 9C        		.byte	0x9c
 1569 0204 F102 0000 		.long	0x2f1
 1570 0208 11        		.uleb128 0x11
 1571 0209 6300      		.string	"c"
 1572 020b 01        		.byte	0x1
 1573 020c 61        		.byte	0x61
 1574 020d 18        		.byte	0x18
 1575 020e E601 0000 		.long	0x1e6
 1576 0212 0000 0000 		.long	.LLST9
 1577 0216 0000 0000 		.long	.LVUS9
 1578 021a 12        		.uleb128 0x12
 1579 021b 7800      		.string	"x"
 1580 021d 01        		.byte	0x1
 1581 021e 63        		.byte	0x63
 1582 021f 0B        		.byte	0xb
 1583 0220 4B00 0000 		.long	0x4b
 1584 0224 0000 0000 		.long	.LLST10
 1585 0228 0000 0000 		.long	.LVUS10
 1586 022c 12        		.uleb128 0x12
 1587 022d 7900      		.string	"y"
 1588 022f 01        		.byte	0x1
 1589 0230 63        		.byte	0x63
 1590 0231 0E        		.byte	0xe
 1591 0232 4B00 0000 		.long	0x4b
 1592 0236 0000 0000 		.long	.LLST11
 1593 023a 0000 0000 		.long	.LVUS11
 1594 023e 15        		.uleb128 0x15
 1595 023f 0000 0000 		.long	.LASF40
 1596 0243 01        		.byte	0x1
 1597 0244 64        		.byte	0x64
 1598 0245 08        		.byte	0x8
 1599 0246 F102 0000 		.long	0x2f1
 1600 024a 16        		.uleb128 0x16
 1601 024b 0000 0000 		.long	.LASF28
 1602 024f 01        		.byte	0x1
 1603 0250 65        		.byte	0x65
 1604 0251 0A        		.byte	0xa
 1605 0252 2C00 0000 		.long	0x2c
 1606 0256 0000 0000 		.long	.LLST12
 1607 025a 0000 0000 		.long	.LVUS12
 1608 025e 16        		.uleb128 0x16
 1609 025f 0000 0000 		.long	.LASF29
 1610 0263 01        		.byte	0x1
 1611 0264 65        		.byte	0x65
 1612 0265 10        		.byte	0x10
 1613 0266 2C00 0000 		.long	0x2c
 1614 026a 0000 0000 		.long	.LLST13
GAS LISTING /var/folders/b3/c8k8_7z16sxb5qhkpvrmv5jh0000gn/T//ccVKyh5f.s 			page 34


 1615 026e 0000 0000 		.long	.LVUS13
 1616 0272 12        		.uleb128 0x12
 1617 0273 7363 00   		.string	"sc"
 1618 0276 01        		.byte	0x1
 1619 0277 66        		.byte	0x66
 1620 0278 0B        		.byte	0xb
 1621 0279 4B00 0000 		.long	0x4b
 1622 027d 0000 0000 		.long	.LLST14
 1623 0281 0000 0000 		.long	.LVUS14
 1624 0285 12        		.uleb128 0x12
 1625 0286 6563 00   		.string	"ec"
 1626 0289 01        		.byte	0x1
 1627 028a 66        		.byte	0x66
 1628 028b 19        		.byte	0x19
 1629 028c 4B00 0000 		.long	0x4b
 1630 0290 0000 0000 		.long	.LLST15
 1631 0294 0000 0000 		.long	.LVUS15
 1632 0298 12        		.uleb128 0x12
 1633 0299 7370 00   		.string	"sp"
 1634 029c 01        		.byte	0x1
 1635 029d 66        		.byte	0x66
 1636 029e 2B        		.byte	0x2b
 1637 029f 4B00 0000 		.long	0x4b
 1638 02a3 0000 0000 		.long	.LLST16
 1639 02a7 0000 0000 		.long	.LVUS16
 1640 02ab 12        		.uleb128 0x12
 1641 02ac 6570 00   		.string	"ep"
 1642 02af 01        		.byte	0x1
 1643 02b0 66        		.byte	0x66
 1644 02b1 39        		.byte	0x39
 1645 02b2 4B00 0000 		.long	0x4b
 1646 02b6 0000 0000 		.long	.LLST17
 1647 02ba 0000 0000 		.long	.LVUS17
 1648 02be 17        		.uleb128 0x17
 1649 02bf 0000 0000 		.long	.LBB2
 1650 02c3 0200 0000 		.long	.LBE2-.LBB2
 1651 02c7 16        		.uleb128 0x16
 1652 02c8 0000 0000 		.long	.LASF30
 1653 02cc 01        		.byte	0x1
 1654 02cd 71        		.byte	0x71
 1655 02ce 0A        		.byte	0xa
 1656 02cf 4B00 0000 		.long	0x4b
 1657 02d3 0000 0000 		.long	.LLST18
 1658 02d7 0000 0000 		.long	.LVUS18
 1659 02db 16        		.uleb128 0x16
 1660 02dc 0000 0000 		.long	.LASF31
 1661 02e0 01        		.byte	0x1
 1662 02e1 71        		.byte	0x71
 1663 02e2 0A        		.byte	0xa
 1664 02e3 2C00 0000 		.long	0x2c
 1665 02e7 0000 0000 		.long	.LLST19
 1666 02eb 0000 0000 		.long	.LVUS19
 1667 02ef 00        		.byte	0
 1668 02f0 00        		.byte	0
 1669 02f1 14        		.uleb128 0x14
 1670 02f2 02        		.byte	0x2
 1671 02f3 ED01 0000 		.long	0x1ed
GAS LISTING /var/folders/b3/c8k8_7z16sxb5qhkpvrmv5jh0000gn/T//ccVKyh5f.s 			page 35


 1672 02f7 18        		.uleb128 0x18
 1673 02f8 0000 0000 		.long	.LASF35
 1674 02fc 01        		.byte	0x1
 1675 02fd 59        		.byte	0x59
 1676 02fe 06        		.byte	0x6
 1677 02ff 0000 0000 		.long	.LFB5
 1678 0303 6C00 0000 		.long	.LFE5-.LFB5
 1679 0307 01        		.uleb128 0x1
 1680 0308 9C        		.byte	0x9c
 1681 0309 3003 0000 		.long	0x330
 1682 030d 19        		.uleb128 0x19
 1683 030e 7200      		.string	"r"
 1684 0310 01        		.byte	0x1
 1685 0311 5D        		.byte	0x5d
 1686 0312 0C        		.byte	0xc
 1687 0313 8001 0000 		.long	0x180
 1688 0317 02        		.uleb128 0x2
 1689 0318 8C        		.byte	0x8c
 1690 0319 01        		.sleb128 1
 1691 031a 1A        		.uleb128 0x1a
 1692 031b 0000 0000 		.long	.LVL27
 1693 031f 9703 0000 		.long	0x397
 1694 0323 1B        		.uleb128 0x1b
 1695 0324 06        		.uleb128 0x6
 1696 0325 60        		.byte	0x60
 1697 0326 93        		.byte	0x93
 1698 0327 01        		.uleb128 0x1
 1699 0328 61        		.byte	0x61
 1700 0329 93        		.byte	0x93
 1701 032a 01        		.uleb128 0x1
 1702 032b 02        		.uleb128 0x2
 1703 032c 80        		.byte	0x80
 1704 032d 00        		.sleb128 0
 1705 032e 00        		.byte	0
 1706 032f 00        		.byte	0
 1707 0330 10        		.uleb128 0x10
 1708 0331 0000 0000 		.long	.LASF32
 1709 0335 01        		.byte	0x1
 1710 0336 4A        		.byte	0x4a
 1711 0337 06        		.byte	0x6
 1712 0338 0000 0000 		.long	.LFB4
 1713 033c CC00 0000 		.long	.LFE4-.LFB4
 1714 0340 01        		.uleb128 0x1
 1715 0341 9C        		.byte	0x9c
 1716 0342 9103 0000 		.long	0x391
 1717 0346 11        		.uleb128 0x11
 1718 0347 7200      		.string	"r"
 1719 0349 01        		.byte	0x1
 1720 034a 4A        		.byte	0x4a
 1721 034b 27        		.byte	0x27
 1722 034c 8001 0000 		.long	0x180
 1723 0350 0000 0000 		.long	.LLST5
 1724 0354 0000 0000 		.long	.LVUS5
 1725 0358 11        		.uleb128 0x11
 1726 0359 636F 6C00 		.string	"col"
 1727 035d 01        		.byte	0x1
 1728 035e 4A        		.byte	0x4a
GAS LISTING /var/folders/b3/c8k8_7z16sxb5qhkpvrmv5jh0000gn/T//ccVKyh5f.s 			page 36


 1729 035f 34        		.byte	0x34
 1730 0360 9103 0000 		.long	0x391
 1731 0364 0000 0000 		.long	.LLST6
 1732 0368 0000 0000 		.long	.LVUS6
 1733 036c 12        		.uleb128 0x12
 1734 036d 7800      		.string	"x"
 1735 036f 01        		.byte	0x1
 1736 0370 4C        		.byte	0x4c
 1737 0371 0B        		.byte	0xb
 1738 0372 4B00 0000 		.long	0x4b
 1739 0376 0000 0000 		.long	.LLST7
 1740 037a 0000 0000 		.long	.LVUS7
 1741 037e 12        		.uleb128 0x12
 1742 037f 7900      		.string	"y"
 1743 0381 01        		.byte	0x1
 1744 0382 4C        		.byte	0x4c
 1745 0383 0E        		.byte	0xe
 1746 0384 4B00 0000 		.long	0x4b
 1747 0388 0000 0000 		.long	.LLST8
 1748 038c 0000 0000 		.long	.LVUS8
 1749 0390 00        		.byte	0
 1750 0391 14        		.uleb128 0x14
 1751 0392 02        		.byte	0x2
 1752 0393 4B00 0000 		.long	0x4b
 1753 0397 10        		.uleb128 0x10
 1754 0398 0000 0000 		.long	.LASF33
 1755 039c 01        		.byte	0x1
 1756 039d 3B        		.byte	0x3b
 1757 039e 06        		.byte	0x6
 1758 039f 0000 0000 		.long	.LFB3
 1759 03a3 C800 0000 		.long	.LFE3-.LFB3
 1760 03a7 01        		.uleb128 0x1
 1761 03a8 9C        		.byte	0x9c
 1762 03a9 F803 0000 		.long	0x3f8
 1763 03ad 11        		.uleb128 0x11
 1764 03ae 7200      		.string	"r"
 1765 03b0 01        		.byte	0x1
 1766 03b1 3B        		.byte	0x3b
 1767 03b2 1F        		.byte	0x1f
 1768 03b3 8001 0000 		.long	0x180
 1769 03b7 0000 0000 		.long	.LLST1
 1770 03bb 0000 0000 		.long	.LVUS1
 1771 03bf 11        		.uleb128 0x11
 1772 03c0 636F 6C00 		.string	"col"
 1773 03c4 01        		.byte	0x1
 1774 03c5 3B        		.byte	0x3b
 1775 03c6 2B        		.byte	0x2b
 1776 03c7 4B00 0000 		.long	0x4b
 1777 03cb 0000 0000 		.long	.LLST2
 1778 03cf 0000 0000 		.long	.LVUS2
 1779 03d3 12        		.uleb128 0x12
 1780 03d4 7800      		.string	"x"
 1781 03d6 01        		.byte	0x1
 1782 03d7 3D        		.byte	0x3d
 1783 03d8 0B        		.byte	0xb
 1784 03d9 4B00 0000 		.long	0x4b
 1785 03dd 0000 0000 		.long	.LLST3
GAS LISTING /var/folders/b3/c8k8_7z16sxb5qhkpvrmv5jh0000gn/T//ccVKyh5f.s 			page 37


 1786 03e1 0000 0000 		.long	.LVUS3
 1787 03e5 12        		.uleb128 0x12
 1788 03e6 7900      		.string	"y"
 1789 03e8 01        		.byte	0x1
 1790 03e9 3D        		.byte	0x3d
 1791 03ea 0E        		.byte	0xe
 1792 03eb 4B00 0000 		.long	0x4b
 1793 03ef 0000 0000 		.long	.LLST4
 1794 03f3 0000 0000 		.long	.LVUS4
 1795 03f7 00        		.byte	0
 1796 03f8 10        		.uleb128 0x10
 1797 03f9 0000 0000 		.long	.LASF34
 1798 03fd 01        		.byte	0x1
 1799 03fe 1B        		.byte	0x1b
 1800 03ff 06        		.byte	0x6
 1801 0400 0000 0000 		.long	.LFB2
 1802 0404 1001 0000 		.long	.LFE2-.LFB2
 1803 0408 01        		.uleb128 0x1
 1804 0409 9C        		.byte	0x9c
 1805 040a 2104 0000 		.long	0x421
 1806 040e 11        		.uleb128 0x11
 1807 040f 6F00      		.string	"o"
 1808 0411 01        		.byte	0x1
 1809 0412 1B        		.byte	0x1b
 1810 0413 22        		.byte	0x22
 1811 0414 BD00 0000 		.long	0xbd
 1812 0418 0000 0000 		.long	.LLST0
 1813 041c 0000 0000 		.long	.LVUS0
 1814 0420 00        		.byte	0
 1815 0421 18        		.uleb128 0x18
 1816 0422 0000 0000 		.long	.LASF36
 1817 0426 01        		.byte	0x1
 1818 0427 0C        		.byte	0xc
 1819 0428 06        		.byte	0x6
 1820 0429 0000 0000 		.long	.LFB1
 1821 042d 1800 0000 		.long	.LFE1-.LFB1
 1822 0431 01        		.uleb128 0x1
 1823 0432 9C        		.byte	0x9c
 1824 0433 4104 0000 		.long	0x441
 1825 0437 1C        		.uleb128 0x1c
 1826 0438 0000 0000 		.long	.LVL0
 1827 043c 4104 0000 		.long	0x441
 1828 0440 00        		.byte	0
 1829 0441 1D        		.uleb128 0x1d
 1830 0442 0000 0000 		.long	.LASF41
 1831 0446 0000 0000 		.long	.LASF41
 1832 044a 05        		.byte	0x5
 1833 044b 7E        		.byte	0x7e
 1834 044c 06        		.byte	0x6
 1835 044d 00        		.byte	0
 1836               		.section	.debug_abbrev,"",@progbits
 1837               	.Ldebug_abbrev0:
 1838 0000 01        		.uleb128 0x1
 1839 0001 11        		.uleb128 0x11
 1840 0002 01        		.byte	0x1
 1841 0003 25        		.uleb128 0x25
 1842 0004 0E        		.uleb128 0xe
GAS LISTING /var/folders/b3/c8k8_7z16sxb5qhkpvrmv5jh0000gn/T//ccVKyh5f.s 			page 38


 1843 0005 13        		.uleb128 0x13
 1844 0006 0B        		.uleb128 0xb
 1845 0007 03        		.uleb128 0x3
 1846 0008 0E        		.uleb128 0xe
 1847 0009 1B        		.uleb128 0x1b
 1848 000a 0E        		.uleb128 0xe
 1849 000b 11        		.uleb128 0x11
 1850 000c 01        		.uleb128 0x1
 1851 000d 12        		.uleb128 0x12
 1852 000e 06        		.uleb128 0x6
 1853 000f 10        		.uleb128 0x10
 1854 0010 17        		.uleb128 0x17
 1855 0011 00        		.byte	0
 1856 0012 00        		.byte	0
 1857 0013 02        		.uleb128 0x2
 1858 0014 24        		.uleb128 0x24
 1859 0015 00        		.byte	0
 1860 0016 0B        		.uleb128 0xb
 1861 0017 0B        		.uleb128 0xb
 1862 0018 3E        		.uleb128 0x3e
 1863 0019 0B        		.uleb128 0xb
 1864 001a 03        		.uleb128 0x3
 1865 001b 0E        		.uleb128 0xe
 1866 001c 00        		.byte	0
 1867 001d 00        		.byte	0
 1868 001e 03        		.uleb128 0x3
 1869 001f 16        		.uleb128 0x16
 1870 0020 00        		.byte	0
 1871 0021 03        		.uleb128 0x3
 1872 0022 0E        		.uleb128 0xe
 1873 0023 3A        		.uleb128 0x3a
 1874 0024 0B        		.uleb128 0xb
 1875 0025 3B        		.uleb128 0x3b
 1876 0026 0B        		.uleb128 0xb
 1877 0027 39        		.uleb128 0x39
 1878 0028 0B        		.uleb128 0xb
 1879 0029 49        		.uleb128 0x49
 1880 002a 13        		.uleb128 0x13
 1881 002b 00        		.byte	0
 1882 002c 00        		.byte	0
 1883 002d 04        		.uleb128 0x4
 1884 002e 26        		.uleb128 0x26
 1885 002f 00        		.byte	0
 1886 0030 49        		.uleb128 0x49
 1887 0031 13        		.uleb128 0x13
 1888 0032 00        		.byte	0
 1889 0033 00        		.byte	0
 1890 0034 05        		.uleb128 0x5
 1891 0035 24        		.uleb128 0x24
 1892 0036 00        		.byte	0
 1893 0037 0B        		.uleb128 0xb
 1894 0038 0B        		.uleb128 0xb
 1895 0039 3E        		.uleb128 0x3e
 1896 003a 0B        		.uleb128 0xb
 1897 003b 03        		.uleb128 0x3
 1898 003c 08        		.uleb128 0x8
 1899 003d 00        		.byte	0
GAS LISTING /var/folders/b3/c8k8_7z16sxb5qhkpvrmv5jh0000gn/T//ccVKyh5f.s 			page 39


 1900 003e 00        		.byte	0
 1901 003f 06        		.uleb128 0x6
 1902 0040 01        		.uleb128 0x1
 1903 0041 01        		.byte	0x1
 1904 0042 49        		.uleb128 0x49
 1905 0043 13        		.uleb128 0x13
 1906 0044 01        		.uleb128 0x1
 1907 0045 13        		.uleb128 0x13
 1908 0046 00        		.byte	0
 1909 0047 00        		.byte	0
 1910 0048 07        		.uleb128 0x7
 1911 0049 21        		.uleb128 0x21
 1912 004a 00        		.byte	0
 1913 004b 00        		.byte	0
 1914 004c 00        		.byte	0
 1915 004d 08        		.uleb128 0x8
 1916 004e 34        		.uleb128 0x34
 1917 004f 00        		.byte	0
 1918 0050 03        		.uleb128 0x3
 1919 0051 0E        		.uleb128 0xe
 1920 0052 3A        		.uleb128 0x3a
 1921 0053 0B        		.uleb128 0xb
 1922 0054 3B        		.uleb128 0x3b
 1923 0055 0B        		.uleb128 0xb
 1924 0056 39        		.uleb128 0x39
 1925 0057 0B        		.uleb128 0xb
 1926 0058 49        		.uleb128 0x49
 1927 0059 13        		.uleb128 0x13
 1928 005a 3F        		.uleb128 0x3f
 1929 005b 19        		.uleb128 0x19
 1930 005c 3C        		.uleb128 0x3c
 1931 005d 19        		.uleb128 0x19
 1932 005e 00        		.byte	0
 1933 005f 00        		.byte	0
 1934 0060 09        		.uleb128 0x9
 1935 0061 04        		.uleb128 0x4
 1936 0062 01        		.byte	0x1
 1937 0063 3E        		.uleb128 0x3e
 1938 0064 0B        		.uleb128 0xb
 1939 0065 0B        		.uleb128 0xb
 1940 0066 0B        		.uleb128 0xb
 1941 0067 49        		.uleb128 0x49
 1942 0068 13        		.uleb128 0x13
 1943 0069 3A        		.uleb128 0x3a
 1944 006a 0B        		.uleb128 0xb
 1945 006b 3B        		.uleb128 0x3b
 1946 006c 0B        		.uleb128 0xb
 1947 006d 39        		.uleb128 0x39
 1948 006e 0B        		.uleb128 0xb
 1949 006f 01        		.uleb128 0x1
 1950 0070 13        		.uleb128 0x13
 1951 0071 00        		.byte	0
 1952 0072 00        		.byte	0
 1953 0073 0A        		.uleb128 0xa
 1954 0074 28        		.uleb128 0x28
 1955 0075 00        		.byte	0
 1956 0076 03        		.uleb128 0x3
GAS LISTING /var/folders/b3/c8k8_7z16sxb5qhkpvrmv5jh0000gn/T//ccVKyh5f.s 			page 40


 1957 0077 0E        		.uleb128 0xe
 1958 0078 1C        		.uleb128 0x1c
 1959 0079 0B        		.uleb128 0xb
 1960 007a 00        		.byte	0
 1961 007b 00        		.byte	0
 1962 007c 0B        		.uleb128 0xb
 1963 007d 13        		.uleb128 0x13
 1964 007e 01        		.byte	0x1
 1965 007f 0B        		.uleb128 0xb
 1966 0080 0B        		.uleb128 0xb
 1967 0081 3A        		.uleb128 0x3a
 1968 0082 0B        		.uleb128 0xb
 1969 0083 3B        		.uleb128 0x3b
 1970 0084 0B        		.uleb128 0xb
 1971 0085 39        		.uleb128 0x39
 1972 0086 0B        		.uleb128 0xb
 1973 0087 01        		.uleb128 0x1
 1974 0088 13        		.uleb128 0x13
 1975 0089 00        		.byte	0
 1976 008a 00        		.byte	0
 1977 008b 0C        		.uleb128 0xc
 1978 008c 0D        		.uleb128 0xd
 1979 008d 00        		.byte	0
 1980 008e 03        		.uleb128 0x3
 1981 008f 0E        		.uleb128 0xe
 1982 0090 3A        		.uleb128 0x3a
 1983 0091 0B        		.uleb128 0xb
 1984 0092 3B        		.uleb128 0x3b
 1985 0093 0B        		.uleb128 0xb
 1986 0094 39        		.uleb128 0x39
 1987 0095 0B        		.uleb128 0xb
 1988 0096 49        		.uleb128 0x49
 1989 0097 13        		.uleb128 0x13
 1990 0098 38        		.uleb128 0x38
 1991 0099 0B        		.uleb128 0xb
 1992 009a 00        		.byte	0
 1993 009b 00        		.byte	0
 1994 009c 0D        		.uleb128 0xd
 1995 009d 0D        		.uleb128 0xd
 1996 009e 00        		.byte	0
 1997 009f 03        		.uleb128 0x3
 1998 00a0 08        		.uleb128 0x8
 1999 00a1 3A        		.uleb128 0x3a
 2000 00a2 0B        		.uleb128 0xb
 2001 00a3 3B        		.uleb128 0x3b
 2002 00a4 0B        		.uleb128 0xb
 2003 00a5 39        		.uleb128 0x39
 2004 00a6 0B        		.uleb128 0xb
 2005 00a7 49        		.uleb128 0x49
 2006 00a8 13        		.uleb128 0x13
 2007 00a9 38        		.uleb128 0x38
 2008 00aa 0B        		.uleb128 0xb
 2009 00ab 00        		.byte	0
 2010 00ac 00        		.byte	0
 2011 00ad 0E        		.uleb128 0xe
 2012 00ae 16        		.uleb128 0x16
 2013 00af 00        		.byte	0
GAS LISTING /var/folders/b3/c8k8_7z16sxb5qhkpvrmv5jh0000gn/T//ccVKyh5f.s 			page 41


 2014 00b0 03        		.uleb128 0x3
 2015 00b1 08        		.uleb128 0x8
 2016 00b2 3A        		.uleb128 0x3a
 2017 00b3 0B        		.uleb128 0xb
 2018 00b4 3B        		.uleb128 0x3b
 2019 00b5 0B        		.uleb128 0xb
 2020 00b6 39        		.uleb128 0x39
 2021 00b7 0B        		.uleb128 0xb
 2022 00b8 49        		.uleb128 0x49
 2023 00b9 13        		.uleb128 0x13
 2024 00ba 00        		.byte	0
 2025 00bb 00        		.byte	0
 2026 00bc 0F        		.uleb128 0xf
 2027 00bd 34        		.uleb128 0x34
 2028 00be 00        		.byte	0
 2029 00bf 47        		.uleb128 0x47
 2030 00c0 13        		.uleb128 0x13
 2031 00c1 3A        		.uleb128 0x3a
 2032 00c2 0B        		.uleb128 0xb
 2033 00c3 3B        		.uleb128 0x3b
 2034 00c4 0B        		.uleb128 0xb
 2035 00c5 39        		.uleb128 0x39
 2036 00c6 0B        		.uleb128 0xb
 2037 00c7 02        		.uleb128 0x2
 2038 00c8 18        		.uleb128 0x18
 2039 00c9 00        		.byte	0
 2040 00ca 00        		.byte	0
 2041 00cb 10        		.uleb128 0x10
 2042 00cc 2E        		.uleb128 0x2e
 2043 00cd 01        		.byte	0x1
 2044 00ce 3F        		.uleb128 0x3f
 2045 00cf 19        		.uleb128 0x19
 2046 00d0 03        		.uleb128 0x3
 2047 00d1 0E        		.uleb128 0xe
 2048 00d2 3A        		.uleb128 0x3a
 2049 00d3 0B        		.uleb128 0xb
 2050 00d4 3B        		.uleb128 0x3b
 2051 00d5 0B        		.uleb128 0xb
 2052 00d6 39        		.uleb128 0x39
 2053 00d7 0B        		.uleb128 0xb
 2054 00d8 27        		.uleb128 0x27
 2055 00d9 19        		.uleb128 0x19
 2056 00da 11        		.uleb128 0x11
 2057 00db 01        		.uleb128 0x1
 2058 00dc 12        		.uleb128 0x12
 2059 00dd 06        		.uleb128 0x6
 2060 00de 40        		.uleb128 0x40
 2061 00df 18        		.uleb128 0x18
 2062 00e0 9742      		.uleb128 0x2117
 2063 00e2 19        		.uleb128 0x19
 2064 00e3 01        		.uleb128 0x1
 2065 00e4 13        		.uleb128 0x13
 2066 00e5 00        		.byte	0
 2067 00e6 00        		.byte	0
 2068 00e7 11        		.uleb128 0x11
 2069 00e8 05        		.uleb128 0x5
 2070 00e9 00        		.byte	0
GAS LISTING /var/folders/b3/c8k8_7z16sxb5qhkpvrmv5jh0000gn/T//ccVKyh5f.s 			page 42


 2071 00ea 03        		.uleb128 0x3
 2072 00eb 08        		.uleb128 0x8
 2073 00ec 3A        		.uleb128 0x3a
 2074 00ed 0B        		.uleb128 0xb
 2075 00ee 3B        		.uleb128 0x3b
 2076 00ef 0B        		.uleb128 0xb
 2077 00f0 39        		.uleb128 0x39
 2078 00f1 0B        		.uleb128 0xb
 2079 00f2 49        		.uleb128 0x49
 2080 00f3 13        		.uleb128 0x13
 2081 00f4 02        		.uleb128 0x2
 2082 00f5 17        		.uleb128 0x17
 2083 00f6 B742      		.uleb128 0x2137
 2084 00f8 17        		.uleb128 0x17
 2085 00f9 00        		.byte	0
 2086 00fa 00        		.byte	0
 2087 00fb 12        		.uleb128 0x12
 2088 00fc 34        		.uleb128 0x34
 2089 00fd 00        		.byte	0
 2090 00fe 03        		.uleb128 0x3
 2091 00ff 08        		.uleb128 0x8
 2092 0100 3A        		.uleb128 0x3a
 2093 0101 0B        		.uleb128 0xb
 2094 0102 3B        		.uleb128 0x3b
 2095 0103 0B        		.uleb128 0xb
 2096 0104 39        		.uleb128 0x39
 2097 0105 0B        		.uleb128 0xb
 2098 0106 49        		.uleb128 0x49
 2099 0107 13        		.uleb128 0x13
 2100 0108 02        		.uleb128 0x2
 2101 0109 17        		.uleb128 0x17
 2102 010a B742      		.uleb128 0x2137
 2103 010c 17        		.uleb128 0x17
 2104 010d 00        		.byte	0
 2105 010e 00        		.byte	0
 2106 010f 13        		.uleb128 0x13
 2107 0110 8982 01   		.uleb128 0x4109
 2108 0113 00        		.byte	0
 2109 0114 11        		.uleb128 0x11
 2110 0115 01        		.uleb128 0x1
 2111 0116 31        		.uleb128 0x31
 2112 0117 13        		.uleb128 0x13
 2113 0118 00        		.byte	0
 2114 0119 00        		.byte	0
 2115 011a 14        		.uleb128 0x14
 2116 011b 0F        		.uleb128 0xf
 2117 011c 00        		.byte	0
 2118 011d 0B        		.uleb128 0xb
 2119 011e 0B        		.uleb128 0xb
 2120 011f 49        		.uleb128 0x49
 2121 0120 13        		.uleb128 0x13
 2122 0121 00        		.byte	0
 2123 0122 00        		.byte	0
 2124 0123 15        		.uleb128 0x15
 2125 0124 34        		.uleb128 0x34
 2126 0125 00        		.byte	0
 2127 0126 03        		.uleb128 0x3
GAS LISTING /var/folders/b3/c8k8_7z16sxb5qhkpvrmv5jh0000gn/T//ccVKyh5f.s 			page 43


 2128 0127 0E        		.uleb128 0xe
 2129 0128 3A        		.uleb128 0x3a
 2130 0129 0B        		.uleb128 0xb
 2131 012a 3B        		.uleb128 0x3b
 2132 012b 0B        		.uleb128 0xb
 2133 012c 39        		.uleb128 0x39
 2134 012d 0B        		.uleb128 0xb
 2135 012e 49        		.uleb128 0x49
 2136 012f 13        		.uleb128 0x13
 2137 0130 00        		.byte	0
 2138 0131 00        		.byte	0
 2139 0132 16        		.uleb128 0x16
 2140 0133 34        		.uleb128 0x34
 2141 0134 00        		.byte	0
 2142 0135 03        		.uleb128 0x3
 2143 0136 0E        		.uleb128 0xe
 2144 0137 3A        		.uleb128 0x3a
 2145 0138 0B        		.uleb128 0xb
 2146 0139 3B        		.uleb128 0x3b
 2147 013a 0B        		.uleb128 0xb
 2148 013b 39        		.uleb128 0x39
 2149 013c 0B        		.uleb128 0xb
 2150 013d 49        		.uleb128 0x49
 2151 013e 13        		.uleb128 0x13
 2152 013f 02        		.uleb128 0x2
 2153 0140 17        		.uleb128 0x17
 2154 0141 B742      		.uleb128 0x2137
 2155 0143 17        		.uleb128 0x17
 2156 0144 00        		.byte	0
 2157 0145 00        		.byte	0
 2158 0146 17        		.uleb128 0x17
 2159 0147 0B        		.uleb128 0xb
 2160 0148 01        		.byte	0x1
 2161 0149 11        		.uleb128 0x11
 2162 014a 01        		.uleb128 0x1
 2163 014b 12        		.uleb128 0x12
 2164 014c 06        		.uleb128 0x6
 2165 014d 00        		.byte	0
 2166 014e 00        		.byte	0
 2167 014f 18        		.uleb128 0x18
 2168 0150 2E        		.uleb128 0x2e
 2169 0151 01        		.byte	0x1
 2170 0152 3F        		.uleb128 0x3f
 2171 0153 19        		.uleb128 0x19
 2172 0154 03        		.uleb128 0x3
 2173 0155 0E        		.uleb128 0xe
 2174 0156 3A        		.uleb128 0x3a
 2175 0157 0B        		.uleb128 0xb
 2176 0158 3B        		.uleb128 0x3b
 2177 0159 0B        		.uleb128 0xb
 2178 015a 39        		.uleb128 0x39
 2179 015b 0B        		.uleb128 0xb
 2180 015c 11        		.uleb128 0x11
 2181 015d 01        		.uleb128 0x1
 2182 015e 12        		.uleb128 0x12
 2183 015f 06        		.uleb128 0x6
 2184 0160 40        		.uleb128 0x40
GAS LISTING /var/folders/b3/c8k8_7z16sxb5qhkpvrmv5jh0000gn/T//ccVKyh5f.s 			page 44


 2185 0161 18        		.uleb128 0x18
 2186 0162 9742      		.uleb128 0x2117
 2187 0164 19        		.uleb128 0x19
 2188 0165 01        		.uleb128 0x1
 2189 0166 13        		.uleb128 0x13
 2190 0167 00        		.byte	0
 2191 0168 00        		.byte	0
 2192 0169 19        		.uleb128 0x19
 2193 016a 34        		.uleb128 0x34
 2194 016b 00        		.byte	0
 2195 016c 03        		.uleb128 0x3
 2196 016d 08        		.uleb128 0x8
 2197 016e 3A        		.uleb128 0x3a
 2198 016f 0B        		.uleb128 0xb
 2199 0170 3B        		.uleb128 0x3b
 2200 0171 0B        		.uleb128 0xb
 2201 0172 39        		.uleb128 0x39
 2202 0173 0B        		.uleb128 0xb
 2203 0174 49        		.uleb128 0x49
 2204 0175 13        		.uleb128 0x13
 2205 0176 02        		.uleb128 0x2
 2206 0177 18        		.uleb128 0x18
 2207 0178 00        		.byte	0
 2208 0179 00        		.byte	0
 2209 017a 1A        		.uleb128 0x1a
 2210 017b 8982 01   		.uleb128 0x4109
 2211 017e 01        		.byte	0x1
 2212 017f 11        		.uleb128 0x11
 2213 0180 01        		.uleb128 0x1
 2214 0181 31        		.uleb128 0x31
 2215 0182 13        		.uleb128 0x13
 2216 0183 00        		.byte	0
 2217 0184 00        		.byte	0
 2218 0185 1B        		.uleb128 0x1b
 2219 0186 8A82 01   		.uleb128 0x410a
 2220 0189 00        		.byte	0
 2221 018a 02        		.uleb128 0x2
 2222 018b 18        		.uleb128 0x18
 2223 018c 9142      		.uleb128 0x2111
 2224 018e 18        		.uleb128 0x18
 2225 018f 00        		.byte	0
 2226 0190 00        		.byte	0
 2227 0191 1C        		.uleb128 0x1c
 2228 0192 8982 01   		.uleb128 0x4109
 2229 0195 00        		.byte	0
 2230 0196 11        		.uleb128 0x11
 2231 0197 01        		.uleb128 0x1
 2232 0198 9542      		.uleb128 0x2115
 2233 019a 19        		.uleb128 0x19
 2234 019b 31        		.uleb128 0x31
 2235 019c 13        		.uleb128 0x13
 2236 019d 00        		.byte	0
 2237 019e 00        		.byte	0
 2238 019f 1D        		.uleb128 0x1d
 2239 01a0 2E        		.uleb128 0x2e
 2240 01a1 00        		.byte	0
 2241 01a2 3F        		.uleb128 0x3f
GAS LISTING /var/folders/b3/c8k8_7z16sxb5qhkpvrmv5jh0000gn/T//ccVKyh5f.s 			page 45


 2242 01a3 19        		.uleb128 0x19
 2243 01a4 3C        		.uleb128 0x3c
 2244 01a5 19        		.uleb128 0x19
 2245 01a6 6E        		.uleb128 0x6e
 2246 01a7 0E        		.uleb128 0xe
 2247 01a8 03        		.uleb128 0x3
 2248 01a9 0E        		.uleb128 0xe
 2249 01aa 3A        		.uleb128 0x3a
 2250 01ab 0B        		.uleb128 0xb
 2251 01ac 3B        		.uleb128 0x3b
 2252 01ad 0B        		.uleb128 0xb
 2253 01ae 39        		.uleb128 0x39
 2254 01af 0B        		.uleb128 0xb
 2255 01b0 00        		.byte	0
 2256 01b1 00        		.byte	0
 2257 01b2 00        		.byte	0
 2258               		.section	.debug_loc,"",@progbits
 2259               	.Ldebug_loc0:
 2260               	.LVUS20:
 2261 0000 00        		.uleb128 0
 2262 0001 00        		.uleb128 .LVU455
 2263 0002 00        		.uleb128 .LVU455
 2264 0003 00        		.uleb128 .LVU459
 2265 0004 00        		.uleb128 .LVU459
 2266 0005 00        		.uleb128 .LVU461
 2267 0006 00        		.uleb128 .LVU461
 2268 0007 00        		.uleb128 0
 2269               	.LLST20:
 2270 0008 AE04 0000 		.long	.LVL51-.Ltext0
 2271 000c B804 0000 		.long	.LVL53-.Ltext0
 2272 0010 0600      		.word	0x6
 2273 0012 68        		.byte	0x68
 2274 0013 93        		.byte	0x93
 2275 0014 01        		.uleb128 0x1
 2276 0015 69        		.byte	0x69
 2277 0016 93        		.byte	0x93
 2278 0017 01        		.uleb128 0x1
 2279 0018 B804 0000 		.long	.LVL53-.Ltext0
 2280 001c C804 0000 		.long	.LVL54-.Ltext0
 2281 0020 0600      		.word	0x6
 2282 0022 6C        		.byte	0x6c
 2283 0023 93        		.byte	0x93
 2284 0024 01        		.uleb128 0x1
 2285 0025 6D        		.byte	0x6d
 2286 0026 93        		.byte	0x93
 2287 0027 01        		.uleb128 0x1
 2288 0028 C804 0000 		.long	.LVL54-.Ltext0
 2289 002c CC04 0000 		.long	.LVL56-.Ltext0
 2290 0030 0400      		.word	0x4
 2291 0032 F3        		.byte	0xf3
 2292 0033 01        		.uleb128 0x1
 2293 0034 68        		.byte	0x68
 2294 0035 9F        		.byte	0x9f
 2295 0036 CC04 0000 		.long	.LVL56-.Ltext0
 2296 003a D404 0000 		.long	.LFE7-.Ltext0
 2297 003e 0600      		.word	0x6
 2298 0040 6C        		.byte	0x6c
GAS LISTING /var/folders/b3/c8k8_7z16sxb5qhkpvrmv5jh0000gn/T//ccVKyh5f.s 			page 46


 2299 0041 93        		.byte	0x93
 2300 0042 01        		.uleb128 0x1
 2301 0043 6D        		.byte	0x6d
 2302 0044 93        		.byte	0x93
 2303 0045 01        		.uleb128 0x1
 2304 0046 0000 0000 		.long	0
 2305 004a 0000 0000 		.long	0
 2306               	.LVUS21:
 2307 004e 02        		.uleb128 .LVU454
 2308 004f 00        		.uleb128 .LVU455
 2309 0050 00        		.uleb128 .LVU455
 2310 0051 00        		.uleb128 .LVU460
 2311 0052 00        		.uleb128 .LVU461
 2312 0053 00        		.uleb128 0
 2313               	.LLST21:
 2314 0054 B604 0000 		.long	.LVL52-.Ltext0
 2315 0058 B804 0000 		.long	.LVL53-.Ltext0
 2316 005c 0200      		.word	0x2
 2317 005e 30        		.byte	0x30
 2318 005f 9F        		.byte	0x9f
 2319 0060 B804 0000 		.long	.LVL53-.Ltext0
 2320 0064 CA04 0000 		.long	.LVL55-.Ltext0
 2321 0068 0100      		.word	0x1
 2322 006a 61        		.byte	0x61
 2323 006b CC04 0000 		.long	.LVL56-.Ltext0
 2324 006f D404 0000 		.long	.LFE7-.Ltext0
 2325 0073 0100      		.word	0x1
 2326 0075 61        		.byte	0x61
 2327 0076 0000 0000 		.long	0
 2328 007a 0000 0000 		.long	0
 2329               	.LVUS9:
 2330 007e 00        		.uleb128 0
 2331 007f 00        		.uleb128 .LVU321
 2332 0080 00        		.uleb128 .LVU321
 2333 0081 00        		.uleb128 0
 2334               	.LLST9:
 2335 0082 2803 0000 		.long	.LVL28-.Ltext0
 2336 0086 8403 0000 		.long	.LVL32-.Ltext0
 2337 008a 0100      		.word	0x1
 2338 008c 68        		.byte	0x68
 2339 008d 8403 0000 		.long	.LVL32-.Ltext0
 2340 0091 AE04 0000 		.long	.LFE6-.Ltext0
 2341 0095 0400      		.word	0x4
 2342 0097 F3        		.byte	0xf3
 2343 0098 01        		.uleb128 0x1
 2344 0099 68        		.byte	0x68
 2345 009a 9F        		.byte	0x9f
 2346 009b 0000 0000 		.long	0
 2347 009f 0000 0000 		.long	0
 2348               	.LVUS10:
 2349 00a3 03        		.uleb128 .LVU320
 2350 00a4 00        		.uleb128 .LVU327
 2351 00a5 00        		.uleb128 .LVU327
 2352 00a6 00        		.uleb128 .LVU356
 2353 00a7 00        		.uleb128 .LVU376
 2354 00a8 00        		.uleb128 .LVU439
 2355               	.LLST10:
GAS LISTING /var/folders/b3/c8k8_7z16sxb5qhkpvrmv5jh0000gn/T//ccVKyh5f.s 			page 47


 2356 00a9 8003 0000 		.long	.LVL31-.Ltext0
 2357 00ad A803 0000 		.long	.LVL33-.Ltext0
 2358 00b1 0500      		.word	0x5
 2359 00b3 03        		.byte	0x3
 2360 00b4 0000 0000 		.long	display+6
 2361 00b8 A803 0000 		.long	.LVL33-.Ltext0
 2362 00bc D603 0000 		.long	.LVL34-.Ltext0
 2363 00c0 0600      		.word	0x6
 2364 00c2 68        		.byte	0x68
 2365 00c3 93        		.byte	0x93
 2366 00c4 01        		.uleb128 0x1
 2367 00c5 69        		.byte	0x69
 2368 00c6 93        		.byte	0x93
 2369 00c7 01        		.uleb128 0x1
 2370 00c8 2804 0000 		.long	.LVL40-.Ltext0
 2371 00cc 9404 0000 		.long	.LVL49-.Ltext0
 2372 00d0 0600      		.word	0x6
 2373 00d2 68        		.byte	0x68
 2374 00d3 93        		.byte	0x93
 2375 00d4 01        		.uleb128 0x1
 2376 00d5 69        		.byte	0x69
 2377 00d6 93        		.byte	0x93
 2378 00d7 01        		.uleb128 0x1
 2379 00d8 0000 0000 		.long	0
 2380 00dc 0000 0000 		.long	0
 2381               	.LVUS11:
 2382 00e0 02        		.uleb128 .LVU362
 2383 00e1 00        		.uleb128 .LVU375
 2384 00e2 03        		.uleb128 .LVU413
 2385 00e3 00        		.uleb128 .LVU415
 2386 00e4 00        		.uleb128 .LVU415
 2387 00e5 00        		.uleb128 .LVU439
 2388 00e6 00        		.uleb128 .LVU439
 2389 00e7 00        		.uleb128 0
 2390               	.LLST11:
 2391 00e8 DE03 0000 		.long	.LVL35-.Ltext0
 2392 00ec 1204 0000 		.long	.LVL39-.Ltext0
 2393 00f0 0600      		.word	0x6
 2394 00f2 62        		.byte	0x62
 2395 00f3 93        		.byte	0x93
 2396 00f4 01        		.uleb128 0x1
 2397 00f5 63        		.byte	0x63
 2398 00f6 93        		.byte	0x93
 2399 00f7 01        		.uleb128 0x1
 2400 00f8 5404 0000 		.long	.LVL42-.Ltext0
 2401 00fc 5804 0000 		.long	.LVL43-.Ltext0
 2402 0100 0600      		.word	0x6
 2403 0102 62        		.byte	0x62
 2404 0103 93        		.byte	0x93
 2405 0104 01        		.uleb128 0x1
 2406 0105 63        		.byte	0x63
 2407 0106 93        		.byte	0x93
 2408 0107 01        		.uleb128 0x1
 2409 0108 5804 0000 		.long	.LVL43-.Ltext0
 2410 010c 9404 0000 		.long	.LVL49-.Ltext0
 2411 0110 0600      		.word	0x6
 2412 0112 6C        		.byte	0x6c
GAS LISTING /var/folders/b3/c8k8_7z16sxb5qhkpvrmv5jh0000gn/T//ccVKyh5f.s 			page 48


 2413 0113 93        		.byte	0x93
 2414 0114 01        		.uleb128 0x1
 2415 0115 6D        		.byte	0x6d
 2416 0116 93        		.byte	0x93
 2417 0117 01        		.uleb128 0x1
 2418 0118 9404 0000 		.long	.LVL49-.Ltext0
 2419 011c AE04 0000 		.long	.LFE6-.Ltext0
 2420 0120 0600      		.word	0x6
 2421 0122 62        		.byte	0x62
 2422 0123 93        		.byte	0x93
 2423 0124 01        		.uleb128 0x1
 2424 0125 63        		.byte	0x63
 2425 0126 93        		.byte	0x93
 2426 0127 01        		.uleb128 0x1
 2427 0128 0000 0000 		.long	0
 2428 012c 0000 0000 		.long	0
 2429               	.LVUS12:
 2430 0130 01        		.uleb128 .LVU411
 2431 0131 00        		.uleb128 .LVU439
 2432               	.LLST12:
 2433 0132 5404 0000 		.long	.LVL42-.Ltext0
 2434 0136 9404 0000 		.long	.LVL49-.Ltext0
 2435 013a 0100      		.word	0x1
 2436 013c 5A        		.byte	0x5a
 2437 013d 0000 0000 		.long	0
 2438 0141 0000 0000 		.long	0
 2439               	.LVUS13:
 2440 0145 03        		.uleb128 .LVU413
 2441 0146 00        		.uleb128 .LVU415
 2442 0147 00        		.uleb128 .LVU415
 2443 0148 00        		.uleb128 .LVU439
 2444               	.LLST13:
 2445 0149 5404 0000 		.long	.LVL42-.Ltext0
 2446 014d 5804 0000 		.long	.LVL43-.Ltext0
 2447 0151 0200      		.word	0x2
 2448 0153 31        		.byte	0x31
 2449 0154 9F        		.byte	0x9f
 2450 0155 5804 0000 		.long	.LVL43-.Ltext0
 2451 0159 9404 0000 		.long	.LVL49-.Ltext0
 2452 015d 0100      		.word	0x1
 2453 015f 61        		.byte	0x61
 2454 0160 0000 0000 		.long	0
 2455 0164 0000 0000 		.long	0
 2456               	.LVUS14:
 2457 0168 04        		.uleb128 .LVU288
 2458 0169 00        		.uleb128 .LVU327
 2459 016a 00        		.uleb128 .LVU327
 2460 016b 00        		.uleb128 .LVU367
 2461 016c 00        		.uleb128 .LVU367
 2462 016d 00        		.uleb128 .LVU368
 2463 016e 00        		.uleb128 .LVU368
 2464 016f 00        		.uleb128 .LVU375
 2465 0170 00        		.uleb128 .LVU376
 2466 0171 00        		.uleb128 0
 2467               	.LLST14:
 2468 0172 3C03 0000 		.long	.LVL29-.Ltext0
 2469 0176 A803 0000 		.long	.LVL33-.Ltext0
GAS LISTING /var/folders/b3/c8k8_7z16sxb5qhkpvrmv5jh0000gn/T//ccVKyh5f.s 			page 49


 2470 017a 0500      		.word	0x5
 2471 017c 03        		.byte	0x3
 2472 017d 0000 0000 		.long	display+6
 2473 0181 A803 0000 		.long	.LVL33-.Ltext0
 2474 0185 EA03 0000 		.long	.LVL36-.Ltext0
 2475 0189 0600      		.word	0x6
 2476 018b 64        		.byte	0x64
 2477 018c 93        		.byte	0x93
 2478 018d 01        		.uleb128 0x1
 2479 018e 65        		.byte	0x65
 2480 018f 93        		.byte	0x93
 2481 0190 01        		.uleb128 0x1
 2482 0191 EA03 0000 		.long	.LVL36-.Ltext0
 2483 0195 F203 0000 		.long	.LVL37-.Ltext0
 2484 0199 0500      		.word	0x5
 2485 019b 03        		.byte	0x3
 2486 019c 0000 0000 		.long	display+6
 2487 01a0 F203 0000 		.long	.LVL37-.Ltext0
 2488 01a4 1204 0000 		.long	.LVL39-.Ltext0
 2489 01a8 0300      		.word	0x3
 2490 01aa 84        		.byte	0x84
 2491 01ab 7A        		.sleb128 -6
 2492 01ac 9F        		.byte	0x9f
 2493 01ad 2804 0000 		.long	.LVL40-.Ltext0
 2494 01b1 AE04 0000 		.long	.LFE6-.Ltext0
 2495 01b5 0600      		.word	0x6
 2496 01b7 64        		.byte	0x64
 2497 01b8 93        		.byte	0x93
 2498 01b9 01        		.uleb128 0x1
 2499 01ba 65        		.byte	0x65
 2500 01bb 93        		.byte	0x93
 2501 01bc 01        		.uleb128 0x1
 2502 01bd 0000 0000 		.long	0
 2503 01c1 0000 0000 		.long	0
 2504               	.LVUS15:
 2505 01c5 04        		.uleb128 .LVU288
 2506 01c6 00        		.uleb128 .LVU327
 2507 01c7 00        		.uleb128 .LVU327
 2508 01c8 00        		.uleb128 .LVU367
 2509 01c9 00        		.uleb128 .LVU367
 2510 01ca 00        		.uleb128 .LVU368
 2511 01cb 00        		.uleb128 .LVU368
 2512 01cc 00        		.uleb128 .LVU375
 2513 01cd 00        		.uleb128 .LVU376
 2514 01ce 00        		.uleb128 0
 2515               	.LLST15:
 2516 01cf 3C03 0000 		.long	.LVL29-.Ltext0
 2517 01d3 A803 0000 		.long	.LVL33-.Ltext0
 2518 01d7 0A00      		.word	0xa
 2519 01d9 03        		.byte	0x3
 2520 01da 0000 0000 		.long	display+6
 2521 01de 94        		.byte	0x94
 2522 01df 02        		.byte	0x2
 2523 01e0 23        		.byte	0x23
 2524 01e1 04        		.uleb128 0x4
 2525 01e2 9F        		.byte	0x9f
 2526 01e3 A803 0000 		.long	.LVL33-.Ltext0
GAS LISTING /var/folders/b3/c8k8_7z16sxb5qhkpvrmv5jh0000gn/T//ccVKyh5f.s 			page 50


 2527 01e7 EA03 0000 		.long	.LVL36-.Ltext0
 2528 01eb 0300      		.word	0x3
 2529 01ed 84        		.byte	0x84
 2530 01ee 04        		.sleb128 4
 2531 01ef 9F        		.byte	0x9f
 2532 01f0 EA03 0000 		.long	.LVL36-.Ltext0
 2533 01f4 F203 0000 		.long	.LVL37-.Ltext0
 2534 01f8 0A00      		.word	0xa
 2535 01fa 03        		.byte	0x3
 2536 01fb 0000 0000 		.long	display+6
 2537 01ff 94        		.byte	0x94
 2538 0200 02        		.byte	0x2
 2539 0201 23        		.byte	0x23
 2540 0202 04        		.uleb128 0x4
 2541 0203 9F        		.byte	0x9f
 2542 0204 F203 0000 		.long	.LVL37-.Ltext0
 2543 0208 1204 0000 		.long	.LVL39-.Ltext0
 2544 020c 0300      		.word	0x3
 2545 020e 84        		.byte	0x84
 2546 020f 7E        		.sleb128 -2
 2547 0210 9F        		.byte	0x9f
 2548 0211 2804 0000 		.long	.LVL40-.Ltext0
 2549 0215 AE04 0000 		.long	.LFE6-.Ltext0
 2550 0219 0300      		.word	0x3
 2551 021b 84        		.byte	0x84
 2552 021c 04        		.sleb128 4
 2553 021d 9F        		.byte	0x9f
 2554 021e 0000 0000 		.long	0
 2555 0222 0000 0000 		.long	0
 2556               	.LVUS16:
 2557 0226 04        		.uleb128 .LVU288
 2558 0227 02        		.uleb128 .LVU362
 2559 0228 02        		.uleb128 .LVU362
 2560 0229 00        		.uleb128 .LVU374
 2561 022a 00        		.uleb128 .LVU374
 2562 022b 00        		.uleb128 .LVU375
 2563 022c 00        		.uleb128 .LVU376
 2564 022d 00        		.uleb128 .LVU439
 2565 022e 00        		.uleb128 .LVU439
 2566 022f 00        		.uleb128 0
 2567               	.LLST16:
 2568 0230 3C03 0000 		.long	.LVL29-.Ltext0
 2569 0234 DE03 0000 		.long	.LVL35-.Ltext0
 2570 0238 0500      		.word	0x5
 2571 023a 03        		.byte	0x3
 2572 023b 0000 0000 		.long	display+8
 2573 023f DE03 0000 		.long	.LVL35-.Ltext0
 2574 0243 0A04 0000 		.long	.LVL38-.Ltext0
 2575 0247 0600      		.word	0x6
 2576 0249 6A        		.byte	0x6a
 2577 024a 93        		.byte	0x93
 2578 024b 01        		.uleb128 0x1
 2579 024c 6B        		.byte	0x6b
 2580 024d 93        		.byte	0x93
 2581 024e 01        		.uleb128 0x1
 2582 024f 0A04 0000 		.long	.LVL38-.Ltext0
 2583 0253 1204 0000 		.long	.LVL39-.Ltext0
GAS LISTING /var/folders/b3/c8k8_7z16sxb5qhkpvrmv5jh0000gn/T//ccVKyh5f.s 			page 51


 2584 0257 0500      		.word	0x5
 2585 0259 03        		.byte	0x3
 2586 025a 0000 0000 		.long	display+8
 2587 025e 2804 0000 		.long	.LVL40-.Ltext0
 2588 0262 9404 0000 		.long	.LVL49-.Ltext0
 2589 0266 0600      		.word	0x6
 2590 0268 62        		.byte	0x62
 2591 0269 93        		.byte	0x93
 2592 026a 01        		.uleb128 0x1
 2593 026b 63        		.byte	0x63
 2594 026c 93        		.byte	0x93
 2595 026d 01        		.uleb128 0x1
 2596 026e 9404 0000 		.long	.LVL49-.Ltext0
 2597 0272 AE04 0000 		.long	.LFE6-.Ltext0
 2598 0276 0600      		.word	0x6
 2599 0278 6A        		.byte	0x6a
 2600 0279 93        		.byte	0x93
 2601 027a 01        		.uleb128 0x1
 2602 027b 6B        		.byte	0x6b
 2603 027c 93        		.byte	0x93
 2604 027d 01        		.uleb128 0x1
 2605 027e 0000 0000 		.long	0
 2606 0282 0000 0000 		.long	0
 2607               	.LVUS17:
 2608 0286 04        		.uleb128 .LVU288
 2609 0287 02        		.uleb128 .LVU362
 2610 0288 02        		.uleb128 .LVU362
 2611 0289 00        		.uleb128 .LVU374
 2612 028a 00        		.uleb128 .LVU374
 2613 028b 00        		.uleb128 .LVU375
 2614 028c 00        		.uleb128 .LVU376
 2615 028d 00        		.uleb128 .LVU439
 2616 028e 00        		.uleb128 .LVU439
 2617 028f 00        		.uleb128 0
 2618               	.LLST17:
 2619 0290 3C03 0000 		.long	.LVL29-.Ltext0
 2620 0294 DE03 0000 		.long	.LVL35-.Ltext0
 2621 0298 0A00      		.word	0xa
 2622 029a 03        		.byte	0x3
 2623 029b 0000 0000 		.long	display+8
 2624 029f 94        		.byte	0x94
 2625 02a0 02        		.byte	0x2
 2626 02a1 23        		.byte	0x23
 2627 02a2 07        		.uleb128 0x7
 2628 02a3 9F        		.byte	0x9f
 2629 02a4 DE03 0000 		.long	.LVL35-.Ltext0
 2630 02a8 0A04 0000 		.long	.LVL38-.Ltext0
 2631 02ac 0300      		.word	0x3
 2632 02ae 8A        		.byte	0x8a
 2633 02af 07        		.sleb128 7
 2634 02b0 9F        		.byte	0x9f
 2635 02b1 0A04 0000 		.long	.LVL38-.Ltext0
 2636 02b5 1204 0000 		.long	.LVL39-.Ltext0
 2637 02b9 0A00      		.word	0xa
 2638 02bb 03        		.byte	0x3
 2639 02bc 0000 0000 		.long	display+8
 2640 02c0 94        		.byte	0x94
GAS LISTING /var/folders/b3/c8k8_7z16sxb5qhkpvrmv5jh0000gn/T//ccVKyh5f.s 			page 52


 2641 02c1 02        		.byte	0x2
 2642 02c2 23        		.byte	0x23
 2643 02c3 07        		.uleb128 0x7
 2644 02c4 9F        		.byte	0x9f
 2645 02c5 2804 0000 		.long	.LVL40-.Ltext0
 2646 02c9 9404 0000 		.long	.LVL49-.Ltext0
 2647 02cd 0300      		.word	0x3
 2648 02cf 82        		.byte	0x82
 2649 02d0 07        		.sleb128 7
 2650 02d1 9F        		.byte	0x9f
 2651 02d2 9404 0000 		.long	.LVL49-.Ltext0
 2652 02d6 AE04 0000 		.long	.LFE6-.Ltext0
 2653 02da 0300      		.word	0x3
 2654 02dc 8A        		.byte	0x8a
 2655 02dd 07        		.sleb128 7
 2656 02de 9F        		.byte	0x9f
 2657 02df 0000 0000 		.long	0
 2658 02e3 0000 0000 		.long	0
 2659               	.LVUS18:
 2660 02e7 03        		.uleb128 .LVU408
 2661 02e8 00        		.uleb128 .LVU421
 2662 02e9 00        		.uleb128 .LVU421
 2663 02ea 00        		.uleb128 .LVU422
 2664 02eb 00        		.uleb128 .LVU422
 2665 02ec 00        		.uleb128 .LVU439
 2666               	.LLST18:
 2667 02ed 5204 0000 		.long	.LVL41-.Ltext0
 2668 02f1 6204 0000 		.long	.LVL45-.Ltext0
 2669 02f5 0600      		.word	0x6
 2670 02f7 6E        		.byte	0x6e
 2671 02f8 93        		.byte	0x93
 2672 02f9 01        		.uleb128 0x1
 2673 02fa 6F        		.byte	0x6f
 2674 02fb 93        		.byte	0x93
 2675 02fc 01        		.uleb128 0x1
 2676 02fd 6204 0000 		.long	.LVL45-.Ltext0
 2677 0301 6404 0000 		.long	.LVL46-.Ltext0
 2678 0305 0300      		.word	0x3
 2679 0307 8E        		.byte	0x8e
 2680 0308 7F        		.sleb128 -1
 2681 0309 9F        		.byte	0x9f
 2682 030a 6404 0000 		.long	.LVL46-.Ltext0
 2683 030e 9404 0000 		.long	.LVL49-.Ltext0
 2684 0312 0600      		.word	0x6
 2685 0314 6E        		.byte	0x6e
 2686 0315 93        		.byte	0x93
 2687 0316 01        		.uleb128 0x1
 2688 0317 6F        		.byte	0x6f
 2689 0318 93        		.byte	0x93
 2690 0319 01        		.uleb128 0x1
 2691 031a 0000 0000 		.long	0
 2692 031e 0000 0000 		.long	0
 2693               	.LVUS19:
 2694 0322 00        		.uleb128 .LVU410
 2695 0323 00        		.uleb128 .LVU439
 2696               	.LLST19:
 2697 0324 5404 0000 		.long	.LVL42-.Ltext0
GAS LISTING /var/folders/b3/c8k8_7z16sxb5qhkpvrmv5jh0000gn/T//ccVKyh5f.s 			page 53


 2698 0328 9404 0000 		.long	.LVL49-.Ltext0
 2699 032c 0100      		.word	0x1
 2700 032e 5A        		.byte	0x5a
 2701 032f 0000 0000 		.long	0
 2702 0333 0000 0000 		.long	0
 2703               	.LVUS5:
 2704 0337 00        		.uleb128 .LVU185
 2705 0338 00        		.uleb128 .LVU186
 2706 0339 00        		.uleb128 .LVU186
 2707 033a 00        		.uleb128 .LVU187
 2708 033b 00        		.uleb128 .LVU187
 2709 033c 02        		.uleb128 .LVU243
 2710 033d 02        		.uleb128 .LVU243
 2711 033e 00        		.uleb128 0
 2712               	.LLST5:
 2713 033f 1C02 0000 		.long	.LVL15-.Ltext0
 2714 0343 2002 0000 		.long	.LVL16-.Ltext0
 2715 0347 0800      		.word	0x8
 2716 0349 62        		.byte	0x62
 2717 034a 93        		.byte	0x93
 2718 034b 01        		.uleb128 0x1
 2719 034c 63        		.byte	0x63
 2720 034d 93        		.byte	0x93
 2721 034e 01        		.uleb128 0x1
 2722 034f 93        		.byte	0x93
 2723 0350 06        		.uleb128 0x6
 2724 0351 2002 0000 		.long	.LVL16-.Ltext0
 2725 0355 2402 0000 		.long	.LVL17-.Ltext0
 2726 0359 1400      		.word	0x14
 2727 035b 62        		.byte	0x62
 2728 035c 93        		.byte	0x93
 2729 035d 01        		.uleb128 0x1
 2730 035e 63        		.byte	0x63
 2731 035f 93        		.byte	0x93
 2732 0360 01        		.uleb128 0x1
 2733 0361 6A        		.byte	0x6a
 2734 0362 93        		.byte	0x93
 2735 0363 01        		.uleb128 0x1
 2736 0364 6B        		.byte	0x6b
 2737 0365 93        		.byte	0x93
 2738 0366 01        		.uleb128 0x1
 2739 0367 66        		.byte	0x66
 2740 0368 93        		.byte	0x93
 2741 0369 01        		.uleb128 0x1
 2742 036a 67        		.byte	0x67
 2743 036b 93        		.byte	0x93
 2744 036c 01        		.uleb128 0x1
 2745 036d 93        		.byte	0x93
 2746 036e 02        		.uleb128 0x2
 2747 036f 2402 0000 		.long	.LVL17-.Ltext0
 2748 0373 7802 0000 		.long	.LVL18-.Ltext0
 2749 0377 1800      		.word	0x18
 2750 0379 62        		.byte	0x62
 2751 037a 93        		.byte	0x93
 2752 037b 01        		.uleb128 0x1
 2753 037c 63        		.byte	0x63
 2754 037d 93        		.byte	0x93
GAS LISTING /var/folders/b3/c8k8_7z16sxb5qhkpvrmv5jh0000gn/T//ccVKyh5f.s 			page 54


 2755 037e 01        		.uleb128 0x1
 2756 037f 6A        		.byte	0x6a
 2757 0380 93        		.byte	0x93
 2758 0381 01        		.uleb128 0x1
 2759 0382 6B        		.byte	0x6b
 2760 0383 93        		.byte	0x93
 2761 0384 01        		.uleb128 0x1
 2762 0385 66        		.byte	0x66
 2763 0386 93        		.byte	0x93
 2764 0387 01        		.uleb128 0x1
 2765 0388 67        		.byte	0x67
 2766 0389 93        		.byte	0x93
 2767 038a 01        		.uleb128 0x1
 2768 038b 64        		.byte	0x64
 2769 038c 93        		.byte	0x93
 2770 038d 01        		.uleb128 0x1
 2771 038e 65        		.byte	0x65
 2772 038f 93        		.byte	0x93
 2773 0390 01        		.uleb128 0x1
 2774 0391 7802 0000 		.long	.LVL18-.Ltext0
 2775 0395 BC02 0000 		.long	.LFE4-.Ltext0
 2776 0399 1400      		.word	0x14
 2777 039b 93        		.byte	0x93
 2778 039c 02        		.uleb128 0x2
 2779 039d 6A        		.byte	0x6a
 2780 039e 93        		.byte	0x93
 2781 039f 01        		.uleb128 0x1
 2782 03a0 6B        		.byte	0x6b
 2783 03a1 93        		.byte	0x93
 2784 03a2 01        		.uleb128 0x1
 2785 03a3 66        		.byte	0x66
 2786 03a4 93        		.byte	0x93
 2787 03a5 01        		.uleb128 0x1
 2788 03a6 67        		.byte	0x67
 2789 03a7 93        		.byte	0x93
 2790 03a8 01        		.uleb128 0x1
 2791 03a9 64        		.byte	0x64
 2792 03aa 93        		.byte	0x93
 2793 03ab 01        		.uleb128 0x1
 2794 03ac 65        		.byte	0x65
 2795 03ad 93        		.byte	0x93
 2796 03ae 01        		.uleb128 0x1
 2797 03af 0000 0000 		.long	0
 2798 03b3 0000 0000 		.long	0
 2799               	.LVUS6:
 2800 03b7 00        		.uleb128 0
 2801 03b8 02        		.uleb128 .LVU243
 2802 03b9 02        		.uleb128 .LVU243
 2803 03ba 00        		.uleb128 .LVU247
 2804 03bb 00        		.uleb128 .LVU247
 2805 03bc 01        		.uleb128 .LVU248
 2806 03bd 01        		.uleb128 .LVU248
 2807 03be 02        		.uleb128 .LVU253
 2808 03bf 02        		.uleb128 .LVU253
 2809 03c0 00        		.uleb128 .LVU260
 2810 03c1 00        		.uleb128 .LVU261
 2811 03c2 00        		.uleb128 .LVU266
GAS LISTING /var/folders/b3/c8k8_7z16sxb5qhkpvrmv5jh0000gn/T//ccVKyh5f.s 			page 55


 2812 03c3 00        		.uleb128 .LVU266
 2813 03c4 00        		.uleb128 .LVU267
 2814               	.LLST6:
 2815 03c5 F001 0000 		.long	.LVL14-.Ltext0
 2816 03c9 7802 0000 		.long	.LVL18-.Ltext0
 2817 03cd 0600      		.word	0x6
 2818 03cf 60        		.byte	0x60
 2819 03d0 93        		.byte	0x93
 2820 03d1 01        		.uleb128 0x1
 2821 03d2 61        		.byte	0x61
 2822 03d3 93        		.byte	0x93
 2823 03d4 01        		.uleb128 0x1
 2824 03d5 7802 0000 		.long	.LVL18-.Ltext0
 2825 03d9 8402 0000 		.long	.LVL19-.Ltext0
 2826 03dd 0600      		.word	0x6
 2827 03df 60        		.byte	0x60
 2828 03e0 93        		.byte	0x93
 2829 03e1 01        		.uleb128 0x1
 2830 03e2 61        		.byte	0x61
 2831 03e3 93        		.byte	0x93
 2832 03e4 01        		.uleb128 0x1
 2833 03e5 8402 0000 		.long	.LVL19-.Ltext0
 2834 03e9 8402 0000 		.long	.LVL19-.Ltext0
 2835 03ed 0600      		.word	0x6
 2836 03ef 6E        		.byte	0x6e
 2837 03f0 93        		.byte	0x93
 2838 03f1 01        		.uleb128 0x1
 2839 03f2 61        		.byte	0x61
 2840 03f3 93        		.byte	0x93
 2841 03f4 01        		.uleb128 0x1
 2842 03f5 8402 0000 		.long	.LVL19-.Ltext0
 2843 03f9 8C02 0000 		.long	.LVL20-.Ltext0
 2844 03fd 0300      		.word	0x3
 2845 03ff 80        		.byte	0x80
 2846 0400 02        		.sleb128 2
 2847 0401 9F        		.byte	0x9f
 2848 0402 8C02 0000 		.long	.LVL20-.Ltext0
 2849 0406 9802 0000 		.long	.LVL22-.Ltext0
 2850 040a 0300      		.word	0x3
 2851 040c 80        		.byte	0x80
 2852 040d 04        		.sleb128 4
 2853 040e 9F        		.byte	0x9f
 2854 040f 9A02 0000 		.long	.LVL23-.Ltext0
 2855 0413 A602 0000 		.long	.LVL25-.Ltext0
 2856 0417 0600      		.word	0x6
 2857 0419 6E        		.byte	0x6e
 2858 041a 93        		.byte	0x93
 2859 041b 01        		.uleb128 0x1
 2860 041c 61        		.byte	0x61
 2861 041d 93        		.byte	0x93
 2862 041e 01        		.uleb128 0x1
 2863 041f A602 0000 		.long	.LVL25-.Ltext0
 2864 0423 B802 0000 		.long	.LVL26-.Ltext0
 2865 0427 0600      		.word	0x6
 2866 0429 60        		.byte	0x60
 2867 042a 93        		.byte	0x93
 2868 042b 01        		.uleb128 0x1
GAS LISTING /var/folders/b3/c8k8_7z16sxb5qhkpvrmv5jh0000gn/T//ccVKyh5f.s 			page 56


 2869 042c 61        		.byte	0x61
 2870 042d 93        		.byte	0x93
 2871 042e 01        		.uleb128 0x1
 2872 042f 0000 0000 		.long	0
 2873 0433 0000 0000 		.long	0
 2874               	.LVUS7:
 2875 0437 02        		.uleb128 .LVU243
 2876 0438 00        		.uleb128 0
 2877               	.LLST7:
 2878 0439 7802 0000 		.long	.LVL18-.Ltext0
 2879 043d BC02 0000 		.long	.LFE4-.Ltext0
 2880 0441 0600      		.word	0x6
 2881 0443 62        		.byte	0x62
 2882 0444 93        		.byte	0x93
 2883 0445 01        		.uleb128 0x1
 2884 0446 63        		.byte	0x63
 2885 0447 93        		.byte	0x93
 2886 0448 01        		.uleb128 0x1
 2887 0449 0000 0000 		.long	0
 2888 044d 0000 0000 		.long	0
 2889               	.LVUS8:
 2890 0451 00        		.uleb128 .LVU247
 2891 0452 00        		.uleb128 .LVU260
 2892 0453 00        		.uleb128 .LVU261
 2893 0454 00        		.uleb128 .LVU266
 2894               	.LLST8:
 2895 0455 8402 0000 		.long	.LVL19-.Ltext0
 2896 0459 9802 0000 		.long	.LVL22-.Ltext0
 2897 045d 0600      		.word	0x6
 2898 045f 68        		.byte	0x68
 2899 0460 93        		.byte	0x93
 2900 0461 01        		.uleb128 0x1
 2901 0462 69        		.byte	0x69
 2902 0463 93        		.byte	0x93
 2903 0464 01        		.uleb128 0x1
 2904 0465 9A02 0000 		.long	.LVL23-.Ltext0
 2905 0469 A602 0000 		.long	.LVL25-.Ltext0
 2906 046d 0600      		.word	0x6
 2907 046f 68        		.byte	0x68
 2908 0470 93        		.byte	0x93
 2909 0471 01        		.uleb128 0x1
 2910 0472 69        		.byte	0x69
 2911 0473 93        		.byte	0x93
 2912 0474 01        		.uleb128 0x1
 2913 0475 0000 0000 		.long	0
 2914 0479 0000 0000 		.long	0
 2915               	.LVUS1:
 2916 047d 00        		.uleb128 .LVU104
 2917 047e 00        		.uleb128 .LVU105
 2918 047f 00        		.uleb128 .LVU105
 2919 0480 00        		.uleb128 .LVU106
 2920 0481 00        		.uleb128 .LVU106
 2921 0482 00        		.uleb128 .LVU107
 2922 0483 00        		.uleb128 .LVU107
 2923 0484 02        		.uleb128 .LVU163
 2924 0485 02        		.uleb128 .LVU163
 2925 0486 00        		.uleb128 0
GAS LISTING /var/folders/b3/c8k8_7z16sxb5qhkpvrmv5jh0000gn/T//ccVKyh5f.s 			page 57


 2926               	.LLST1:
 2927 0487 5801 0000 		.long	.LVL4-.Ltext0
 2928 048b 5C01 0000 		.long	.LVL5-.Ltext0
 2929 048f 0800      		.word	0x8
 2930 0491 68        		.byte	0x68
 2931 0492 93        		.byte	0x93
 2932 0493 01        		.uleb128 0x1
 2933 0494 69        		.byte	0x69
 2934 0495 93        		.byte	0x93
 2935 0496 01        		.uleb128 0x1
 2936 0497 93        		.byte	0x93
 2937 0498 06        		.uleb128 0x6
 2938 0499 5C01 0000 		.long	.LVL5-.Ltext0
 2939 049d 5E01 0000 		.long	.LVL6-.Ltext0
 2940 04a1 0E00      		.word	0xe
 2941 04a3 68        		.byte	0x68
 2942 04a4 93        		.byte	0x93
 2943 04a5 01        		.uleb128 0x1
 2944 04a6 69        		.byte	0x69
 2945 04a7 93        		.byte	0x93
 2946 04a8 01        		.uleb128 0x1
 2947 04a9 64        		.byte	0x64
 2948 04aa 93        		.byte	0x93
 2949 04ab 01        		.uleb128 0x1
 2950 04ac 65        		.byte	0x65
 2951 04ad 93        		.byte	0x93
 2952 04ae 01        		.uleb128 0x1
 2953 04af 93        		.byte	0x93
 2954 04b0 04        		.uleb128 0x4
 2955 04b1 5E01 0000 		.long	.LVL6-.Ltext0
 2956 04b5 6201 0000 		.long	.LVL7-.Ltext0
 2957 04b9 1400      		.word	0x14
 2958 04bb 68        		.byte	0x68
 2959 04bc 93        		.byte	0x93
 2960 04bd 01        		.uleb128 0x1
 2961 04be 69        		.byte	0x69
 2962 04bf 93        		.byte	0x93
 2963 04c0 01        		.uleb128 0x1
 2964 04c1 64        		.byte	0x64
 2965 04c2 93        		.byte	0x93
 2966 04c3 01        		.uleb128 0x1
 2967 04c4 65        		.byte	0x65
 2968 04c5 93        		.byte	0x93
 2969 04c6 01        		.uleb128 0x1
 2970 04c7 66        		.byte	0x66
 2971 04c8 93        		.byte	0x93
 2972 04c9 01        		.uleb128 0x1
 2973 04ca 63        		.byte	0x63
 2974 04cb 93        		.byte	0x93
 2975 04cc 01        		.uleb128 0x1
 2976 04cd 93        		.byte	0x93
 2977 04ce 02        		.uleb128 0x2
 2978 04cf 6201 0000 		.long	.LVL7-.Ltext0
 2979 04d3 B601 0000 		.long	.LVL8-.Ltext0
 2980 04d7 1800      		.word	0x18
 2981 04d9 68        		.byte	0x68
 2982 04da 93        		.byte	0x93
GAS LISTING /var/folders/b3/c8k8_7z16sxb5qhkpvrmv5jh0000gn/T//ccVKyh5f.s 			page 58


 2983 04db 01        		.uleb128 0x1
 2984 04dc 69        		.byte	0x69
 2985 04dd 93        		.byte	0x93
 2986 04de 01        		.uleb128 0x1
 2987 04df 64        		.byte	0x64
 2988 04e0 93        		.byte	0x93
 2989 04e1 01        		.uleb128 0x1
 2990 04e2 65        		.byte	0x65
 2991 04e3 93        		.byte	0x93
 2992 04e4 01        		.uleb128 0x1
 2993 04e5 66        		.byte	0x66
 2994 04e6 93        		.byte	0x93
 2995 04e7 01        		.uleb128 0x1
 2996 04e8 63        		.byte	0x63
 2997 04e9 93        		.byte	0x93
 2998 04ea 01        		.uleb128 0x1
 2999 04eb 6E        		.byte	0x6e
 3000 04ec 93        		.byte	0x93
 3001 04ed 01        		.uleb128 0x1
 3002 04ee 6F        		.byte	0x6f
 3003 04ef 93        		.byte	0x93
 3004 04f0 01        		.uleb128 0x1
 3005 04f1 B601 0000 		.long	.LVL8-.Ltext0
 3006 04f5 F001 0000 		.long	.LFE3-.Ltext0
 3007 04f9 1400      		.word	0x14
 3008 04fb 93        		.byte	0x93
 3009 04fc 02        		.uleb128 0x2
 3010 04fd 64        		.byte	0x64
 3011 04fe 93        		.byte	0x93
 3012 04ff 01        		.uleb128 0x1
 3013 0500 65        		.byte	0x65
 3014 0501 93        		.byte	0x93
 3015 0502 01        		.uleb128 0x1
 3016 0503 66        		.byte	0x66
 3017 0504 93        		.byte	0x93
 3018 0505 01        		.uleb128 0x1
 3019 0506 63        		.byte	0x63
 3020 0507 93        		.byte	0x93
 3021 0508 01        		.uleb128 0x1
 3022 0509 6E        		.byte	0x6e
 3023 050a 93        		.byte	0x93
 3024 050b 01        		.uleb128 0x1
 3025 050c 6F        		.byte	0x6f
 3026 050d 93        		.byte	0x93
 3027 050e 01        		.uleb128 0x1
 3028 050f 0000 0000 		.long	0
 3029 0513 0000 0000 		.long	0
 3030               	.LVUS2:
 3031 0517 00        		.uleb128 0
 3032 0518 00        		.uleb128 .LVU166
 3033 0519 00        		.uleb128 .LVU166
 3034 051a 00        		.uleb128 .LVU167
 3035 051b 00        		.uleb128 .LVU167
 3036 051c 00        		.uleb128 0
 3037               	.LLST2:
 3038 051d 2801 0000 		.long	.LVL3-.Ltext0
 3039 0521 D001 0000 		.long	.LVL9-.Ltext0
GAS LISTING /var/folders/b3/c8k8_7z16sxb5qhkpvrmv5jh0000gn/T//ccVKyh5f.s 			page 59


 3040 0525 0600      		.word	0x6
 3041 0527 60        		.byte	0x60
 3042 0528 93        		.byte	0x93
 3043 0529 01        		.uleb128 0x1
 3044 052a 61        		.byte	0x61
 3045 052b 93        		.byte	0x93
 3046 052c 01        		.uleb128 0x1
 3047 052d D001 0000 		.long	.LVL9-.Ltext0
 3048 0531 D201 0000 		.long	.LVL10-.Ltext0
 3049 0535 0400      		.word	0x4
 3050 0537 F3        		.byte	0xf3
 3051 0538 01        		.uleb128 0x1
 3052 0539 60        		.byte	0x60
 3053 053a 9F        		.byte	0x9f
 3054 053b D201 0000 		.long	.LVL10-.Ltext0
 3055 053f F001 0000 		.long	.LFE3-.Ltext0
 3056 0543 0600      		.word	0x6
 3057 0545 60        		.byte	0x60
 3058 0546 93        		.byte	0x93
 3059 0547 01        		.uleb128 0x1
 3060 0548 61        		.byte	0x61
 3061 0549 93        		.byte	0x93
 3062 054a 01        		.uleb128 0x1
 3063 054b 0000 0000 		.long	0
 3064 054f 0000 0000 		.long	0
 3065               	.LVUS3:
 3066 0553 02        		.uleb128 .LVU163
 3067 0554 00        		.uleb128 0
 3068               	.LLST3:
 3069 0555 B601 0000 		.long	.LVL8-.Ltext0
 3070 0559 F001 0000 		.long	.LFE3-.Ltext0
 3071 055d 0600      		.word	0x6
 3072 055f 68        		.byte	0x68
 3073 0560 93        		.byte	0x93
 3074 0561 01        		.uleb128 0x1
 3075 0562 69        		.byte	0x69
 3076 0563 93        		.byte	0x93
 3077 0564 01        		.uleb128 0x1
 3078 0565 0000 0000 		.long	0
 3079 0569 0000 0000 		.long	0
 3080               	.LVUS4:
 3081 056d 00        		.uleb128 .LVU167
 3082 056e 00        		.uleb128 .LVU182
 3083               	.LLST4:
 3084 056f D201 0000 		.long	.LVL10-.Ltext0
 3085 0573 EC01 0000 		.long	.LVL13-.Ltext0
 3086 0577 0600      		.word	0x6
 3087 0579 62        		.byte	0x62
 3088 057a 93        		.byte	0x93
 3089 057b 01        		.uleb128 0x1
 3090 057c 63        		.byte	0x63
 3091 057d 93        		.byte	0x93
 3092 057e 01        		.uleb128 0x1
 3093 057f 0000 0000 		.long	0
 3094 0583 0000 0000 		.long	0
 3095               	.LVUS0:
 3096 0587 00        		.uleb128 0
GAS LISTING /var/folders/b3/c8k8_7z16sxb5qhkpvrmv5jh0000gn/T//ccVKyh5f.s 			page 60


 3097 0588 00        		.uleb128 .LVU16
 3098 0589 00        		.uleb128 .LVU16
 3099 058a 00        		.uleb128 0
 3100               	.LLST0:
 3101 058b 1800 0000 		.long	.LVL1-.Ltext0
 3102 058f 2600 0000 		.long	.LVL2-.Ltext0
 3103 0593 0600      		.word	0x6
 3104 0595 68        		.byte	0x68
 3105 0596 93        		.byte	0x93
 3106 0597 01        		.uleb128 0x1
 3107 0598 69        		.byte	0x69
 3108 0599 93        		.byte	0x93
 3109 059a 01        		.uleb128 0x1
 3110 059b 2600 0000 		.long	.LVL2-.Ltext0
 3111 059f 2801 0000 		.long	.LFE2-.Ltext0
 3112 05a3 0600      		.word	0x6
 3113 05a5 62        		.byte	0x62
 3114 05a6 93        		.byte	0x93
 3115 05a7 01        		.uleb128 0x1
 3116 05a8 63        		.byte	0x63
 3117 05a9 93        		.byte	0x93
 3118 05aa 01        		.uleb128 0x1
 3119 05ab 0000 0000 		.long	0
 3120 05af 0000 0000 		.long	0
 3121               		.section	.debug_aranges,"",@progbits
 3122 0000 1C00 0000 		.long	0x1c
 3123 0004 0200      		.word	0x2
 3124 0006 0000 0000 		.long	.Ldebug_info0
 3125 000a 04        		.byte	0x4
 3126 000b 00        		.byte	0
 3127 000c 0000      		.word	0
 3128 000e 0000      		.word	0
 3129 0010 0000 0000 		.long	.Ltext0
 3130 0014 D404 0000 		.long	.Letext0-.Ltext0
 3131 0018 0000 0000 		.long	0
 3132 001c 0000 0000 		.long	0
 3133               		.section	.debug_line,"",@progbits
 3134               	.Ldebug_line0:
 3135 0000 AF0F 0000 		.section	.debug_str,"MS",@progbits,1
 3135      0300 7400 
 3135      0000 0201 
 3135      FB0E 0D00 
 3135      0101 0101 
 3136               	.LASF9:
 3137 0000 4E6F 7274 		.string	"North"
 3137      6800 
 3138               	.LASF34:
 3139 0006 7365 745F 		.string	"set_orientation"
 3139      6F72 6965 
 3139      6E74 6174 
 3139      696F 6E00 
 3140               	.LASF35:
 3141 0016 636C 6561 		.string	"clear_screen"
 3141      725F 7363 
 3141      7265 656E 
 3141      00
 3142               	.LASF21:
GAS LISTING /var/folders/b3/c8k8_7z16sxb5qhkpvrmv5jh0000gn/T//ccVKyh5f.s 			page 61


 3143 0023 6C65 6674 		.string	"left"
 3143      00
 3144               	.LASF30:
 3145 0028 5F5F 6164 		.string	"__addr16"
 3145      6472 3136 
 3145      00
 3146               	.LASF32:
 3147 0031 6669 6C6C 		.string	"fill_rectangle_indexed"
 3147      5F72 6563 
 3147      7461 6E67 
 3147      6C65 5F69 
 3147      6E64 6578 
 3148               	.LASF33:
 3149 0048 6669 6C6C 		.string	"fill_rectangle"
 3149      5F72 6563 
 3149      7461 6E67 
 3149      6C65 00
 3150               	.LASF16:
 3151 0057 6F72 6965 		.string	"orient"
 3151      6E74 00
 3152               	.LASF11:
 3153 005e 536F 7574 		.string	"South"
 3153      6800 
 3154               	.LASF13:
 3155 0064 6F72 6965 		.string	"orientation"
 3155      6E74 6174 
 3155      696F 6E00 
 3156               	.LASF27:
 3157 0070 6469 7370 		.string	"display_char"
 3157      6C61 795F 
 3157      6368 6172 
 3157      00
 3158               	.LASF1:
 3159 007d 756E 7369 		.string	"unsigned char"
 3159      676E 6564 
 3159      2063 6861 
 3159      7200 
 3160               	.LASF6:
 3161 008b 6C6F 6E67 		.string	"long unsigned int"
 3161      2075 6E73 
 3161      6967 6E65 
 3161      6420 696E 
 3161      7400 
 3162               	.LASF26:
 3163 009d 6469 7370 		.string	"display_string"
 3163      6C61 795F 
 3163      7374 7269 
 3163      6E67 00
 3164               	.LASF15:
 3165 00ac 6865 6967 		.string	"height"
 3165      6874 00
 3166               	.LASF18:
 3167 00b3 6261 636B 		.string	"background"
 3167      6772 6F75 
 3167      6E64 00
 3168               	.LASF23:
 3169 00be 626F 7474 		.string	"bottom"
GAS LISTING /var/folders/b3/c8k8_7z16sxb5qhkpvrmv5jh0000gn/T//ccVKyh5f.s 			page 62


 3169      6F6D 00
 3170               	.LASF36:
 3171 00c5 696E 6974 		.string	"init_lcd"
 3171      5F6C 6364 
 3171      00
 3172               	.LASF37:
 3173 00ce 474E 5520 		.string	"GNU C17 9.2.0 -mn-flash=1 -mno-skip-bug -mmcu=avr5 -g -Os -fpack-struct -funsigned-bitfie
 3173      4331 3720 
 3173      392E 322E 
 3173      3020 2D6D 
 3173      6E2D 666C 
 3174               	.LASF29:
 3175 013b 6D61 736B 		.string	"mask"
 3175      00
 3176               	.LASF10:
 3177 0140 5765 7374 		.string	"West"
 3177      00
 3178               	.LASF24:
 3179 0145 7265 6374 		.string	"rectangle"
 3179      616E 676C 
 3179      6500 
 3180               	.LASF4:
 3181 014f 756E 7369 		.string	"unsigned int"
 3181      676E 6564 
 3181      2069 6E74 
 3181      00
 3182               	.LASF22:
 3183 015c 7269 6768 		.string	"right"
 3183      7400 
 3184               	.LASF40:
 3185 0162 6664 6174 		.string	"fdata"
 3185      6100 
 3186               	.LASF8:
 3187 0168 6C6F 6E67 		.string	"long long unsigned int"
 3187      206C 6F6E 
 3187      6720 756E 
 3187      7369 676E 
 3187      6564 2069 
 3188               	.LASF2:
 3189 017f 7569 6E74 		.string	"uint8_t"
 3189      385F 7400 
 3190               	.LASF7:
 3191 0187 6C6F 6E67 		.string	"long long int"
 3191      206C 6F6E 
 3191      6720 696E 
 3191      7400 
 3192               	.LASF25:
 3193 0195 6368 6172 		.string	"char"
 3193      00
 3194               	.LASF28:
 3195 019a 6269 7473 		.string	"bits"
 3195      00
 3196               	.LASF14:
 3197 019f 7769 6474 		.string	"width"
 3197      6800 
 3198               	.LASF3:
 3199 01a5 7569 6E74 		.string	"uint16_t"
GAS LISTING /var/folders/b3/c8k8_7z16sxb5qhkpvrmv5jh0000gn/T//ccVKyh5f.s 			page 63


 3199      3136 5F74 
 3199      00
 3200               	.LASF19:
 3201 01ae 666F 6E74 		.string	"font5x7"
 3201      3578 3700 
 3202               	.LASF5:
 3203 01b6 6C6F 6E67 		.string	"long int"
 3203      2069 6E74 
 3203      00
 3204               	.LASF20:
 3205 01bf 6469 7370 		.string	"display"
 3205      6C61 7900 
 3206               	.LASF12:
 3207 01c7 4561 7374 		.string	"East"
 3207      00
 3208               	.LASF0:
 3209 01cc 7369 676E 		.string	"signed char"
 3209      6564 2063 
 3209      6861 7200 
 3210               	.LASF17:
 3211 01d8 666F 7265 		.string	"foreground"
 3211      6772 6F75 
 3211      6E64 00
 3212               	.LASF31:
 3213 01e3 5F5F 7265 		.string	"__result"
 3213      7375 6C74 
 3213      00
 3214               	.LASF38:
 3215 01ec 6C63 642E 		.string	"lcd.c"
 3215      6300 
 3216               	.LASF41:
 3217 01f2 696E 6974 		.string	"init_display_controller"
 3217      5F64 6973 
 3217      706C 6179 
 3217      5F63 6F6E 
 3217      7472 6F6C 
 3218               	.LASF39:
 3219 020a 2F55 7365 		.string	"/Users/edluffy/Documents/D1/lcdlib"
 3219      7273 2F65 
 3219      646C 7566 
 3219      6679 2F44 
 3219      6F63 756D 
 3220               		.ident	"GCC: (GNU) 9.2.0"
 3221               	.global __do_copy_data
GAS LISTING /var/folders/b3/c8k8_7z16sxb5qhkpvrmv5jh0000gn/T//ccVKyh5f.s 			page 64


DEFINED SYMBOLS
                            *ABS*:0000000000000000 lcd.c
/var/folders/b3/c8k8_7z16sxb5qhkpvrmv5jh0000gn/T//ccVKyh5f.s:2      *ABS*:000000000000003e __SP_H__
/var/folders/b3/c8k8_7z16sxb5qhkpvrmv5jh0000gn/T//ccVKyh5f.s:3      *ABS*:000000000000003d __SP_L__
/var/folders/b3/c8k8_7z16sxb5qhkpvrmv5jh0000gn/T//ccVKyh5f.s:4      *ABS*:000000000000003f __SREG__
/var/folders/b3/c8k8_7z16sxb5qhkpvrmv5jh0000gn/T//ccVKyh5f.s:5      *ABS*:0000000000000000 __tmp_reg__
/var/folders/b3/c8k8_7z16sxb5qhkpvrmv5jh0000gn/T//ccVKyh5f.s:6      *ABS*:0000000000000001 __zero_reg__
/var/folders/b3/c8k8_7z16sxb5qhkpvrmv5jh0000gn/T//ccVKyh5f.s:12     .text:0000000000000000 init_lcd
/var/folders/b3/c8k8_7z16sxb5qhkpvrmv5jh0000gn/T//ccVKyh5f.s:47     .text:0000000000000018 set_orientation
/var/folders/b3/c8k8_7z16sxb5qhkpvrmv5jh0000gn/T//ccVKyh5f.s:1290   .data:0000000000000000 display
/var/folders/b3/c8k8_7z16sxb5qhkpvrmv5jh0000gn/T//ccVKyh5f.s:271    .text:0000000000000128 fill_rectangle
/var/folders/b3/c8k8_7z16sxb5qhkpvrmv5jh0000gn/T//ccVKyh5f.s:490    .text:00000000000001f0 fill_rectangle_indexed
/var/folders/b3/c8k8_7z16sxb5qhkpvrmv5jh0000gn/T//ccVKyh5f.s:718    .text:00000000000002bc clear_screen
/var/folders/b3/c8k8_7z16sxb5qhkpvrmv5jh0000gn/T//ccVKyh5f.s:808    .text:0000000000000328 display_char
/var/folders/b3/c8k8_7z16sxb5qhkpvrmv5jh0000gn/T//ccVKyh5f.s:1226   .text:00000000000004ae display_string

UNDEFINED SYMBOLS
init_display_controller
font5x7
__do_copy_data
